
lms_ctr_app.elf:     file format elf32-littlenios2
lms_ctr_app.elf
architecture: nios2:r1, flags 0x00000112:
EXEC_P, HAS_SYMS, D_PAGED
start address 0x00210020

Program Header:
    LOAD off    0x00001000 vaddr 0x00210000 paddr 0x00210000 align 2**12
         filesz 0x00000020 memsz 0x00000020 flags r-x
    LOAD off    0x00001020 vaddr 0x00210020 paddr 0x00210020 align 2**12
         filesz 0x000074ac memsz 0x0000768c flags rwx

Sections:
Idx Name          Size      VMA       LMA       File off  Algn
  0 .entry        00000020  00210000  00210000  00001000  2**5
                  CONTENTS, ALLOC, LOAD, READONLY, CODE
  1 .exceptions   00000000  00210020  00210020  000084cc  2**0
                  CONTENTS
  2 .text         00006e68  00210020  00210020  00001020  2**2
                  CONTENTS, ALLOC, LOAD, READONLY, CODE
  3 .rodata       00000244  00216e88  00216e88  00007e88  2**2
                  CONTENTS, ALLOC, LOAD, READONLY, DATA
  4 .rwdata       00000400  002170cc  002170cc  000080cc  2**2
                  CONTENTS, ALLOC, LOAD, DATA, SMALL_DATA
  5 .bss          000001e0  002174cc  002174cc  000084cc  2**2
                  ALLOC, SMALL_DATA
  6 .onchip_flash_0_data 00000000  00100000  00100000  000084cc  2**0
                  CONTENTS
  7 .onchip_memory2_0 00000000  002176ac  002176ac  000084cc  2**0
                  CONTENTS
  8 .comment      00000023  00000000  00000000  000084cc  2**0
                  CONTENTS, READONLY
  9 .debug_aranges 000003b0  00000000  00000000  000084f0  2**3
                  CONTENTS, READONLY, DEBUGGING
 10 .debug_info   00006008  00000000  00000000  000088a0  2**0
                  CONTENTS, READONLY, DEBUGGING
 11 .debug_abbrev 00001f1f  00000000  00000000  0000e8a8  2**0
                  CONTENTS, READONLY, DEBUGGING
 12 .debug_line   00002c01  00000000  00000000  000107c7  2**0
                  CONTENTS, READONLY, DEBUGGING
 13 .debug_frame  00000980  00000000  00000000  000133c8  2**2
                  CONTENTS, READONLY, DEBUGGING
 14 .debug_str    000025ff  00000000  00000000  00013d48  2**0
                  CONTENTS, READONLY, DEBUGGING
 15 .debug_loc    00002ae4  00000000  00000000  00016347  2**0
                  CONTENTS, READONLY, DEBUGGING
 16 .debug_alt_sim_info 00000040  00000000  00000000  00018e2c  2**2
                  CONTENTS, READONLY, DEBUGGING
 17 .debug_ranges 00000398  00000000  00000000  00018e70  2**3
                  CONTENTS, READONLY, DEBUGGING
 18 .thread_model 00000003  00000000  00000000  0001b484  2**0
                  CONTENTS, READONLY
 19 .cpu          00000009  00000000  00000000  0001b487  2**0
                  CONTENTS, READONLY
 20 .qsys         00000001  00000000  00000000  0001b490  2**0
                  CONTENTS, READONLY
 21 .simulation_enabled 00000001  00000000  00000000  0001b491  2**0
                  CONTENTS, READONLY
 22 .sysid_hash   00000004  00000000  00000000  0001b492  2**0
                  CONTENTS, READONLY
 23 .sysid_base   00000004  00000000  00000000  0001b496  2**0
                  CONTENTS, READONLY
 24 .sysid_time   00000004  00000000  00000000  0001b49a  2**0
                  CONTENTS, READONLY
 25 .stderr_dev   00000004  00000000  00000000  0001b49e  2**0
                  CONTENTS, READONLY
 26 .stdin_dev    00000004  00000000  00000000  0001b4a2  2**0
                  CONTENTS, READONLY
 27 .stdout_dev   00000004  00000000  00000000  0001b4a6  2**0
                  CONTENTS, READONLY
 28 .sopc_system_name 00000007  00000000  00000000  0001b4aa  2**0
                  CONTENTS, READONLY
 29 .sopcinfo     00089bda  00000000  00000000  0001b4b1  2**0
                  CONTENTS, READONLY
SYMBOL TABLE:
00210000 l    d  .entry	00000000 .entry
00210020 l    d  .exceptions	00000000 .exceptions
00210020 l    d  .text	00000000 .text
00216e88 l    d  .rodata	00000000 .rodata
002170cc l    d  .rwdata	00000000 .rwdata
002174cc l    d  .bss	00000000 .bss
00100000 l    d  .onchip_flash_0_data	00000000 .onchip_flash_0_data
002176ac l    d  .onchip_memory2_0	00000000 .onchip_memory2_0
00000000 l    d  .comment	00000000 .comment
00000000 l    d  .debug_aranges	00000000 .debug_aranges
00000000 l    d  .debug_info	00000000 .debug_info
00000000 l    d  .debug_abbrev	00000000 .debug_abbrev
00000000 l    d  .debug_line	00000000 .debug_line
00000000 l    d  .debug_frame	00000000 .debug_frame
00000000 l    d  .debug_str	00000000 .debug_str
00000000 l    d  .debug_loc	00000000 .debug_loc
00000000 l    d  .debug_alt_sim_info	00000000 .debug_alt_sim_info
00000000 l    d  .debug_ranges	00000000 .debug_ranges
00000000 l    df *ABS*	00000000 ../lms_ctr_bsp//obj/HAL/src/crt0.o
00210054 l       .text	00000000 alt_after_alt_main
00000000 l    df *ABS*	00000000 i2c_opencores.c
00000000 l    df *ABS*	00000000 main.c
00000000 l    df *ABS*	00000000 spi_flash_lib.c
00000000 l    df *ABS*	00000000 vctcxo_tamer.c
00000000 l    df *ABS*	00000000 sf_lround.c
00000000 l    df *ABS*	00000000 lib2-divmod.c
00000000 l    df *ABS*	00000000 lib2-mul.c
00000000 l    df *ABS*	00000000 divsf3.c
00000000 l    df *ABS*	00000000 mulsf3.c
00000000 l    df *ABS*	00000000 fixsfsi.c
00000000 l    df *ABS*	00000000 floatsisf.c
00000000 l    df *ABS*	00000000 libgcc2.c
00000000 l    df *ABS*	00000000 libgcc2.c
00000000 l    df *ABS*	00000000 memcpy.c
00000000 l    df *ABS*	00000000 memset.c
00000000 l    df *ABS*	00000000 printf.c
00000000 l    df *ABS*	00000000 puts.c
00000000 l    df *ABS*	00000000 strlen.c
00000000 l    df *ABS*	00000000 vfprintf.c
00214180 l     F .text	0000006c print_repeat
00000000 l    df *ABS*	00000000 fvwrite_small_dev.c
00000000 l    df *ABS*	00000000 impure.c
002170cc l     O .rwdata	000000e0 impure_data
00000000 l    df *ABS*	00000000 writer.c
00000000 l    df *ABS*	00000000 int_errno.c
00000000 l    df *ABS*	00000000 alt_main.c
00000000 l    df *ABS*	00000000 alt_usleep.c
00000000 l    df *ABS*	00000000 alt_write.c
002148f0 l     F .text	0000003c alt_get_errno
00000000 l    df *ABS*	00000000 alt_sys_init.c
00214a2c l     F .text	00000034 alt_dev_reg
002171ac l     O .rwdata	0000002c uart
002171d8 l     O .rwdata	00000100 onchip_flash_0
00000000 l    df *ABS*	00000000 altera_avalon_spi.c
00000000 l    df *ABS*	00000000 altera_avalon_uart_fd.c
00000000 l    df *ABS*	00000000 altera_avalon_uart_read.c
00214da8 l     F .text	0000003c alt_get_errno
00000000 l    df *ABS*	00000000 altera_avalon_uart_write.c
00214ea8 l     F .text	0000003c alt_get_errno
00000000 l    df *ABS*	00000000 altera_onchip_flash.c
00214fc4 l     F .text	00000034 alt_flash_device_register
00000000 l    df *ABS*	00000000 alt_busy_sleep.c
00000000 l    df *ABS*	00000000 alt_close.c
0021605c l     F .text	0000003c alt_get_errno
00000000 l    df *ABS*	00000000 alt_dcache_flush.c
00000000 l    df *ABS*	00000000 alt_dev.c
00216198 l     F .text	0000002c alt_dev_null_write
00000000 l    df *ABS*	00000000 alt_dev_llist_insert.c
002161c4 l     F .text	0000003c alt_get_errno
00000000 l    df *ABS*	00000000 alt_do_ctors.c
00000000 l    df *ABS*	00000000 alt_do_dtors.c
00000000 l    df *ABS*	00000000 alt_errno.c
00000000 l    df *ABS*	00000000 alt_flash_dev.c
00000000 l    df *ABS*	00000000 alt_io_redirect.c
00216420 l     F .text	000000e4 alt_open_fd
00000000 l    df *ABS*	00000000 alt_open.c
00216580 l     F .text	0000003c alt_get_errno
002165bc l     F .text	000000ec alt_file_locked
00000000 l    df *ABS*	00000000 alt_release_fd.c
00000000 l    df *ABS*	00000000 altera_nios2_gen2_irq.c
00000000 l    df *ABS*	00000000 alt_find_dev.c
00000000 l    df *ABS*	00000000 alt_find_file.c
00000000 l    df *ABS*	00000000 alt_get_fd.c
00000000 l    df *ABS*	00000000 atexit.c
00000000 l    df *ABS*	00000000 exit.c
00000000 l    df *ABS*	00000000 memcmp.c
00000000 l    df *ABS*	00000000 __atexit.c
00000000 l    df *ABS*	00000000 __call_atexit.c
00000000 l    df *ABS*	00000000 alt_exit.c
00214844 g     F .text	0000007c alt_main
002140d0 g     F .text	00000080 _puts_r
00212a14 g     F .text	000001c0 FlashSpiTransfer
00213310 g     F .text	000000ac lroundf
0021748c g     O .rwdata	00000004 Board_Config_FPGA
00214084 g     F .text	0000004c printf
002174f0 g     O .bss	00000001 block
0021752c g     O .bss	00000040 glEp0Buffer_Tx
00213598 g     F .text	00000440 .hidden __divsf3
0021748a g     O .rwdata	00000002 converted_val
002174f1 g     O .bss	00000001 data_cnt
002174f4 g     O .bss	00000004 byte1
00213e08 g     F .text	00000070 .hidden __fixsfsi
00216888 g     F .text	00000024 altera_nios2_gen2_irq_init
00210000 g     F .entry	0000000c __reset
002174dc g     O .bss	00000004 address
0021751c g     O .bss	00000004 errno
00217524 g     O .bss	00000004 alt_argv
0021f480 g       *ABS*	00000000 _gp
002148c0 g     F .text	00000030 usleep
002174f8 g     O .bss	00000001 MCU_retries
00215e74 g     F .text	00000090 alt_onchip_flash_poll_for_status_write_passed
00217300 g     O .rwdata	00000180 alt_fd_list
002174f9 g     O .bss	00000004 sc_brdg_data
002168ac g     F .text	00000090 alt_find_dev
00214000 g     F .text	00000028 memcpy
00100000 g       *ABS*	00000000 __alt_mem_onchip_flash_0_data
00216504 g     F .text	0000007c alt_io_redirect
00216e88 g       *ABS*	00000000 __DTOR_END__
00214150 g     F .text	00000014 puts
00210110 g     F .text	0000009c I2C_start
00214048 g     F .text	0000003c _printf_r
00210000 g       *ABS*	00000000 __alt_mem_onchip_memory2_0
002134b4 g     F .text	00000064 .hidden __udivsi3
00212ee0 g     F .text	0000006c vctcxo_tamer_enable_isr
00215de4 g     F .text	00000090 alt_onchip_flash_poll_for_status_erase_passed
00217494 g     O .rwdata	00000004 CFM0EndAddress
002174e8 g     O .bss	00000001 Flash
002174a4 g     O .rwdata	00000008 altera_onchip_flash_list
00217490 g     O .rwdata	00000004 CFM0StartAddress
00212bd4 g     F .text	000000d4 CyFxSpiWaitForStatus
00216170 g     F .text	00000028 alt_dcache_flush
00215160 g     F .text	00000168 alt_onchip_flash_erase_block
002174bc g     O .rwdata	00000004 alt_max_fd
00217519 g     O .bss	00000001 vctcxo_tamer_ctrl_reg
0021749c g     O .rwdata	00000004 _global_impure_ptr
002103d0 g     F .text	00000038 set_led
002176ac g       *ABS*	00000000 __bss_end
00217500 g     O .bss	00000004 fpga_data
00217504 g     O .bss	00000001 state
00212f4c g     F .text	00000040 vctcxo_tamer_clear_isr
002172d8 g     O .rwdata	00000028 alt_dev_null
00213050 g     F .text	000000f4 vctcxo_tamer_read_count
00212df0 g     F .text	0000003c vctcxo_tamer_read
00210538 g     F .text	00000170 testEEPROM
002174b4 g     O .rwdata	00000008 alt_dev_list
0021492c g     F .text	00000100 write
002174d0 g     O .bss	00000004 flash_page_data_cnt
00213518 g     F .text	00000058 .hidden __umodsi3
002106a8 g     F .text	00000058 boot_from_flash
002176ac g       *ABS*	00000000 end
00217508 g     O .bss	00000004 last_portion
00214ee4 g     F .text	000000e0 altera_avalon_uart_write
00216e88 g       *ABS*	00000000 __CTOR_LIST__
0021c000 g       *ABS*	00000000 __alt_stack_pointer
0021750c g     O .bss	00000004 current_portion
00214d48 g     F .text	00000060 altera_avalon_uart_write_fd
00213f9c g     F .text	00000064 .hidden __clzsi2
002141ec g     F .text	0000052c ___vfprintf_internal_r
002150c4 g     F .text	0000009c alt_onchip_flash_get_info
00212908 g     F .text	0000002c FlashSpiFastRead
00216cc4 g     F .text	00000190 __call_exitprocs
00217510 g     O .bss	00000001 test
00210020 g     F .text	00000038 _start
00214aec g     F .text	000001fc alt_avalon_spi_command
00214a98 g     F .text	00000054 alt_sys_init
00213e78 g     F .text	00000124 .hidden __floatsisf
00216b6c g     F .text	00000158 __register_exitproc
00217498 g     O .rwdata	00000002 vctcxo_trim_dac_value
00212934 g     F .text	000000e0 FlashSpiRead
00213570 g     F .text	00000028 .hidden __mulsi3
00212e74 g     F .text	0000006c vctcxo_tamer_reset_counters
00216a44 g     F .text	000000c4 alt_get_fd
002131b0 g     F .text	000000e8 vctcxo_tamer_isr
00215f04 g     F .text	00000158 alt_busy_sleep
00210700 g     F .text	000000d8 Control_TCXO_DAC
00216b3c g     F .text	00000030 memcmp
002176ac g       *ABS*	00000000 __alt_stack_base
00212f8c g     F .text	000000c4 vctcxo_tamer_set_tune_mode
00214ff8 g     F .text	000000cc alt_onchip_flash_read
002174e0 g     O .bss	00000004 byte
0021693c g     F .text	00000108 alt_find_file
00216200 g     F .text	000000a4 alt_dev_llist_insert
002174c4 g     O .rwdata	00000008 alt_flash_dev_list
00214734 g     F .text	000000b8 __sfvwrite_small_dev
002174cc g       *ABS*	00000000 __bss_start
00214028 g     F .text	00000020 memset
002107d8 g     F .text	00002088 main
00217528 g     O .bss	00000004 alt_envp
00210348 g     F .text	00000088 getFifoData
00217518 g     O .bss	00000001 spiFastRead
00210408 g     F .text	00000130 Configure_LM75
002174c0 g     O .rwdata	00000004 alt_errno
00215d54 g     F .text	00000090 alt_onchip_flash_poll_for_status_to_go_idle
002133bc g     F .text	00000084 .hidden __divsi3
00216e88 g       *ABS*	00000000 __CTOR_END__
00215878 g     F .text	000004dc altera_onchip_flash_init
002139d8 g     F .text	00000430 .hidden __mulsf3
002101ac g     F .text	0000007c I2C_read
00216e88 g       *ABS*	00000000 __DTOR_LIST__
00214a60 g     F .text	00000038 alt_irq_init
00216804 g     F .text	00000084 alt_release_fd
00216f85 g     O .rodata	00000100 .hidden __clz_tab
00213298 g     F .text	0000003c vctcxo_tamer_init
00216b08 g     F .text	00000014 atexit
002147ec g     F .text	00000058 _write_r
00217484 g     O .rwdata	00000004 LMS_Ctrl_Packet_Rx
002174a0 g     O .rwdata	00000004 _impure_ptr
00217520 g     O .bss	00000004 alt_argc
00216304 g     F .text	00000060 _do_dtors
00212e2c g     F .text	00000048 vctcxo_tamer_write
002174ac g     O .rwdata	00000008 alt_fs_list
002152c8 g     F .text	000002d8 alt_onchip_flash_write_block
00217488 g     O .rwdata	00000002 dac_val
002174cc g     O .bss	00000004 flash_page
00210058 g     F .text	000000b8 I2C_init
002174cc g       *ABS*	00000000 _edata
00214ce8 g     F .text	00000060 altera_avalon_uart_read_fd
002155a0 g     F .text	000002d8 alt_onchip_flash_write
002176ac g       *ABS*	00000000 _end
00216364 g     F .text	00000068 alt_flash_open_dev
002174d4 g     O .bss	00000004 flash_data_cnt_free
00217511 g     O .bss	00000001 cmd_errors
00216b1c g     F .text	00000020 exit
002163cc g     F .text	00000054 alt_flash_close_dev
00213440 g     F .text	00000074 .hidden __modsi3
00212860 g     F .text	000000a8 ReverseBitOrder
0021c000 g       *ABS*	00000000 __alt_data_end
0021756c g     O .bss	00000100 flash_page_data
002174ec g     O .bss	00000004 boot_img_en
00216e54 g     F .text	00000034 _exit
002102d4 g     F .text	00000074 Check_many_blocks
00214164 g     F .text	0000001c strlen
002174d8 g     O .bss	00000004 flash_data_counter_to_copy
002166a8 g     F .text	0000015c open
00217480 g     O .rwdata	00000004 LMS_Ctrl_Packet_Tx
002132d4 g     F .text	0000003c vctcxo_tamer_dis
00213144 g     F .text	0000006c vctcxo_trim_dac_write
00214718 g     F .text	0000001c __vfprintf_internal
00214de4 g     F .text	000000c4 altera_avalon_uart_read
00217514 g     O .bss	00000004 fpga_byte
002162a4 g     F .text	00000060 _do_ctors
00216098 g     F .text	000000d8 close
002174e4 g     O .bss	00000004 word
00212ca8 g     F .text	00000148 FlashSpiEraseSector
00210228 g     F .text	000000ac I2C_write
0021766c g     O .bss	00000040 glEp0Buffer_Rx



Disassembly of section .entry:

00210000 <__reset>:
  210000:	00400874 	movhi	at,33
  210004:	08400814 	ori	at,at,32
  210008:	0800683a 	jmp	at
	...

Disassembly of section .text:

00210020 <_start>:
  210020:	06c00874 	movhi	sp,33
  210024:	def00014 	ori	sp,sp,49152
  210028:	06800874 	movhi	gp,33
  21002c:	d6bd2014 	ori	gp,gp,62592
  210030:	00800874 	movhi	r2,33
  210034:	109d3314 	ori	r2,r2,29900
  210038:	00c00874 	movhi	r3,33
  21003c:	18ddab14 	ori	r3,r3,30380
  210040:	10c00326 	beq	r2,r3,210050 <_start+0x30>
  210044:	10000015 	stw	zero,0(r2)
  210048:	10800104 	addi	r2,r2,4
  21004c:	10fffd36 	bltu	r2,r3,210044 <_gp+0xffff0bc4>
  210050:	02148440 	call	214844 <alt_main>

00210054 <alt_after_alt_main>:
  210054:	003fff06 	br	210054 <_gp+0xffff0bd4>

00210058 <I2C_init>:
  210058:	defffa04 	addi	sp,sp,-24
  21005c:	dfc00515 	stw	ra,20(sp)
  210060:	df000415 	stw	fp,16(sp)
  210064:	df000404 	addi	fp,sp,16
  210068:	e13ffd15 	stw	r4,-12(fp)
  21006c:	e17ffe15 	stw	r5,-8(fp)
  210070:	e1bfff15 	stw	r6,-4(fp)
  210074:	01400144 	movi	r5,5
  210078:	e13fff17 	ldw	r4,-4(fp)
  21007c:	02135700 	call	213570 <__mulsi3>
  210080:	100b883a 	mov	r5,r2
  210084:	e13ffe17 	ldw	r4,-8(fp)
  210088:	02134b40 	call	2134b4 <__udivsi3>
  21008c:	10bfffc4 	addi	r2,r2,-1
  210090:	e0bffc15 	stw	r2,-16(fp)
  210094:	e0bffd17 	ldw	r2,-12(fp)
  210098:	10800204 	addi	r2,r2,8
  21009c:	0007883a 	mov	r3,zero
  2100a0:	10c00035 	stwio	r3,0(r2)
  2100a4:	e0bffd17 	ldw	r2,-12(fp)
  2100a8:	10800404 	addi	r2,r2,16
  2100ac:	1007883a 	mov	r3,r2
  2100b0:	00800044 	movi	r2,1
  2100b4:	18800035 	stwio	r2,0(r3)
  2100b8:	e0bffd17 	ldw	r2,-12(fp)
  2100bc:	e0fffc17 	ldw	r3,-16(fp)
  2100c0:	18c03fcc 	andi	r3,r3,255
  2100c4:	10c00035 	stwio	r3,0(r2)
  2100c8:	e0bffd17 	ldw	r2,-12(fp)
  2100cc:	10800104 	addi	r2,r2,4
  2100d0:	1007883a 	mov	r3,r2
  2100d4:	e0bffc17 	ldw	r2,-16(fp)
  2100d8:	1004d23a 	srli	r2,r2,8
  2100dc:	10803fcc 	andi	r2,r2,255
  2100e0:	18800035 	stwio	r2,0(r3)
  2100e4:	e0bffd17 	ldw	r2,-12(fp)
  2100e8:	10800204 	addi	r2,r2,8
  2100ec:	1007883a 	mov	r3,r2
  2100f0:	00802004 	movi	r2,128
  2100f4:	18800035 	stwio	r2,0(r3)
  2100f8:	0001883a 	nop
  2100fc:	e037883a 	mov	sp,fp
  210100:	dfc00117 	ldw	ra,4(sp)
  210104:	df000017 	ldw	fp,0(sp)
  210108:	dec00204 	addi	sp,sp,8
  21010c:	f800283a 	ret

00210110 <I2C_start>:
  210110:	defffc04 	addi	sp,sp,-16
  210114:	df000315 	stw	fp,12(sp)
  210118:	df000304 	addi	fp,sp,12
  21011c:	e13ffd15 	stw	r4,-12(fp)
  210120:	e17ffe15 	stw	r5,-8(fp)
  210124:	e1bfff15 	stw	r6,-4(fp)
  210128:	e0bffd17 	ldw	r2,-12(fp)
  21012c:	10800304 	addi	r2,r2,12
  210130:	1007883a 	mov	r3,r2
  210134:	e0bffe17 	ldw	r2,-8(fp)
  210138:	1085883a 	add	r2,r2,r2
  21013c:	1009883a 	mov	r4,r2
  210140:	e0bfff17 	ldw	r2,-4(fp)
  210144:	1080004c 	andi	r2,r2,1
  210148:	2085883a 	add	r2,r4,r2
  21014c:	18800035 	stwio	r2,0(r3)
  210150:	e0bffd17 	ldw	r2,-12(fp)
  210154:	10800404 	addi	r2,r2,16
  210158:	1007883a 	mov	r3,r2
  21015c:	00802404 	movi	r2,144
  210160:	18800035 	stwio	r2,0(r3)
  210164:	0001883a 	nop
  210168:	e0bffd17 	ldw	r2,-12(fp)
  21016c:	10800404 	addi	r2,r2,16
  210170:	10800037 	ldwio	r2,0(r2)
  210174:	1080008c 	andi	r2,r2,2
  210178:	103ffb1e 	bne	r2,zero,210168 <_gp+0xffff0ce8>
  21017c:	e0bffd17 	ldw	r2,-12(fp)
  210180:	10800404 	addi	r2,r2,16
  210184:	10800037 	ldwio	r2,0(r2)
  210188:	1080200c 	andi	r2,r2,128
  21018c:	10000226 	beq	r2,zero,210198 <I2C_start+0x88>
  210190:	00800044 	movi	r2,1
  210194:	00000106 	br	21019c <I2C_start+0x8c>
  210198:	0005883a 	mov	r2,zero
  21019c:	e037883a 	mov	sp,fp
  2101a0:	df000017 	ldw	fp,0(sp)
  2101a4:	dec00104 	addi	sp,sp,4
  2101a8:	f800283a 	ret

002101ac <I2C_read>:
  2101ac:	defffd04 	addi	sp,sp,-12
  2101b0:	df000215 	stw	fp,8(sp)
  2101b4:	df000204 	addi	fp,sp,8
  2101b8:	e13ffe15 	stw	r4,-8(fp)
  2101bc:	e17fff15 	stw	r5,-4(fp)
  2101c0:	e0bfff17 	ldw	r2,-4(fp)
  2101c4:	10000626 	beq	r2,zero,2101e0 <I2C_read+0x34>
  2101c8:	e0bffe17 	ldw	r2,-8(fp)
  2101cc:	10800404 	addi	r2,r2,16
  2101d0:	1007883a 	mov	r3,r2
  2101d4:	00801a04 	movi	r2,104
  2101d8:	18800035 	stwio	r2,0(r3)
  2101dc:	00000506 	br	2101f4 <I2C_read+0x48>
  2101e0:	e0bffe17 	ldw	r2,-8(fp)
  2101e4:	10800404 	addi	r2,r2,16
  2101e8:	1007883a 	mov	r3,r2
  2101ec:	00800804 	movi	r2,32
  2101f0:	18800035 	stwio	r2,0(r3)
  2101f4:	0001883a 	nop
  2101f8:	e0bffe17 	ldw	r2,-8(fp)
  2101fc:	10800404 	addi	r2,r2,16
  210200:	10800037 	ldwio	r2,0(r2)
  210204:	1080008c 	andi	r2,r2,2
  210208:	103ffb1e 	bne	r2,zero,2101f8 <_gp+0xffff0d78>
  21020c:	e0bffe17 	ldw	r2,-8(fp)
  210210:	10800304 	addi	r2,r2,12
  210214:	10800037 	ldwio	r2,0(r2)
  210218:	e037883a 	mov	sp,fp
  21021c:	df000017 	ldw	fp,0(sp)
  210220:	dec00104 	addi	sp,sp,4
  210224:	f800283a 	ret

00210228 <I2C_write>:
  210228:	defffc04 	addi	sp,sp,-16
  21022c:	df000315 	stw	fp,12(sp)
  210230:	df000304 	addi	fp,sp,12
  210234:	e13ffd15 	stw	r4,-12(fp)
  210238:	2805883a 	mov	r2,r5
  21023c:	e1bfff15 	stw	r6,-4(fp)
  210240:	e0bffe05 	stb	r2,-8(fp)
  210244:	e0bffd17 	ldw	r2,-12(fp)
  210248:	10800304 	addi	r2,r2,12
  21024c:	1007883a 	mov	r3,r2
  210250:	e0bffe03 	ldbu	r2,-8(fp)
  210254:	18800035 	stwio	r2,0(r3)
  210258:	e0bfff17 	ldw	r2,-4(fp)
  21025c:	10000626 	beq	r2,zero,210278 <I2C_write+0x50>
  210260:	e0bffd17 	ldw	r2,-12(fp)
  210264:	10800404 	addi	r2,r2,16
  210268:	1007883a 	mov	r3,r2
  21026c:	00801404 	movi	r2,80
  210270:	18800035 	stwio	r2,0(r3)
  210274:	00000506 	br	21028c <I2C_write+0x64>
  210278:	e0bffd17 	ldw	r2,-12(fp)
  21027c:	10800404 	addi	r2,r2,16
  210280:	1007883a 	mov	r3,r2
  210284:	00800404 	movi	r2,16
  210288:	18800035 	stwio	r2,0(r3)
  21028c:	0001883a 	nop
  210290:	e0bffd17 	ldw	r2,-12(fp)
  210294:	10800404 	addi	r2,r2,16
  210298:	10800037 	ldwio	r2,0(r2)
  21029c:	1080008c 	andi	r2,r2,2
  2102a0:	103ffb1e 	bne	r2,zero,210290 <_gp+0xffff0e10>
  2102a4:	e0bffd17 	ldw	r2,-12(fp)
  2102a8:	10800404 	addi	r2,r2,16
  2102ac:	10800037 	ldwio	r2,0(r2)
  2102b0:	1080200c 	andi	r2,r2,128
  2102b4:	10000226 	beq	r2,zero,2102c0 <I2C_write+0x98>
  2102b8:	00800044 	movi	r2,1
  2102bc:	00000106 	br	2102c4 <I2C_write+0x9c>
  2102c0:	0005883a 	mov	r2,zero
  2102c4:	e037883a 	mov	sp,fp
  2102c8:	df000017 	ldw	fp,0(sp)
  2102cc:	dec00104 	addi	sp,sp,4
  2102d0:	f800283a 	ret

002102d4 <Check_many_blocks>:
  2102d4:	defffc04 	addi	sp,sp,-16
  2102d8:	dfc00315 	stw	ra,12(sp)
  2102dc:	df000215 	stw	fp,8(sp)
  2102e0:	dc000115 	stw	r16,4(sp)
  2102e4:	df000204 	addi	fp,sp,8
  2102e8:	2005883a 	mov	r2,r4
  2102ec:	e0bffe05 	stb	r2,-8(fp)
  2102f0:	d0a00117 	ldw	r2,-32764(gp)
  2102f4:	14000083 	ldbu	r16,2(r2)
  2102f8:	e0bffe03 	ldbu	r2,-8(fp)
  2102fc:	100b883a 	mov	r5,r2
  210300:	01000e04 	movi	r4,56
  210304:	02134b40 	call	2134b4 <__udivsi3>
  210308:	1007883a 	mov	r3,r2
  21030c:	80803fcc 	andi	r2,r16,255
  210310:	18c03fcc 	andi	r3,r3,255
  210314:	1880052e 	bgeu	r3,r2,21032c <Check_many_blocks+0x58>
  210318:	d0a00017 	ldw	r2,-32768(gp)
  21031c:	00c00104 	movi	r3,4
  210320:	10c00045 	stb	r3,1(r2)
  210324:	00800044 	movi	r2,1
  210328:	00000106 	br	210330 <Check_many_blocks+0x5c>
  21032c:	0005883a 	mov	r2,zero
  210330:	e6ffff04 	addi	sp,fp,-4
  210334:	dfc00217 	ldw	ra,8(sp)
  210338:	df000117 	ldw	fp,4(sp)
  21033c:	dc000017 	ldw	r16,0(sp)
  210340:	dec00304 	addi	sp,sp,12
  210344:	f800283a 	ret

00210348 <getFifoData>:
  210348:	defffb04 	addi	sp,sp,-20
  21034c:	df000415 	stw	fp,16(sp)
  210350:	df000404 	addi	fp,sp,16
  210354:	e13ffe15 	stw	r4,-8(fp)
  210358:	2805883a 	mov	r2,r5
  21035c:	e0bfff05 	stb	r2,-4(fp)
  210360:	e03ffc05 	stb	zero,-16(fp)
  210364:	e0bffe17 	ldw	r2,-8(fp)
  210368:	e0bffd15 	stw	r2,-12(fp)
  21036c:	e03ffc05 	stb	zero,-16(fp)
  210370:	00000d06 	br	2103a8 <getFifoData+0x60>
  210374:	e0bffc03 	ldbu	r2,-16(fp)
  210378:	1085883a 	add	r2,r2,r2
  21037c:	1085883a 	add	r2,r2,r2
  210380:	1007883a 	mov	r3,r2
  210384:	e0bffd17 	ldw	r2,-12(fp)
  210388:	10c7883a 	add	r3,r2,r3
  21038c:	008008b4 	movhi	r2,34
  210390:	10848504 	addi	r2,r2,4628
  210394:	10800037 	ldwio	r2,0(r2)
  210398:	18800015 	stw	r2,0(r3)
  21039c:	e0bffc03 	ldbu	r2,-16(fp)
  2103a0:	10800044 	addi	r2,r2,1
  2103a4:	e0bffc05 	stb	r2,-16(fp)
  2103a8:	e0bfff03 	ldbu	r2,-4(fp)
  2103ac:	1004d0ba 	srli	r2,r2,2
  2103b0:	10803fcc 	andi	r2,r2,255
  2103b4:	e0fffc03 	ldbu	r3,-16(fp)
  2103b8:	18bfee36 	bltu	r3,r2,210374 <_gp+0xffff0ef4>
  2103bc:	0001883a 	nop
  2103c0:	e037883a 	mov	sp,fp
  2103c4:	df000017 	ldw	fp,0(sp)
  2103c8:	dec00104 	addi	sp,sp,4
  2103cc:	f800283a 	ret

002103d0 <set_led>:
  2103d0:	defffe04 	addi	sp,sp,-8
  2103d4:	df000115 	stw	fp,4(sp)
  2103d8:	df000104 	addi	fp,sp,4
  2103dc:	2005883a 	mov	r2,r4
  2103e0:	e0bfff05 	stb	r2,-4(fp)
  2103e4:	e0ffff03 	ldbu	r3,-4(fp)
  2103e8:	008008b4 	movhi	r2,34
  2103ec:	10847c04 	addi	r2,r2,4592
  2103f0:	10c00035 	stwio	r3,0(r2)
  2103f4:	0001883a 	nop
  2103f8:	e037883a 	mov	sp,fp
  2103fc:	df000017 	ldw	fp,0(sp)
  210400:	dec00104 	addi	sp,sp,4
  210404:	f800283a 	ret

00210408 <Configure_LM75>:
  210408:	defffd04 	addi	sp,sp,-12
  21040c:	dfc00215 	stw	ra,8(sp)
  210410:	df000115 	stw	fp,4(sp)
  210414:	df000104 	addi	fp,sp,4
  210418:	000d883a 	mov	r6,zero
  21041c:	01401204 	movi	r5,72
  210420:	010008b4 	movhi	r4,34
  210424:	21046804 	addi	r4,r4,4512
  210428:	02101100 	call	210110 <I2C_start>
  21042c:	e0bfff15 	stw	r2,-4(fp)
  210430:	000d883a 	mov	r6,zero
  210434:	01400044 	movi	r5,1
  210438:	010008b4 	movhi	r4,34
  21043c:	21046804 	addi	r4,r4,4512
  210440:	02102280 	call	210228 <I2C_write>
  210444:	e0bfff15 	stw	r2,-4(fp)
  210448:	01800044 	movi	r6,1
  21044c:	01400104 	movi	r5,4
  210450:	010008b4 	movhi	r4,34
  210454:	21046804 	addi	r4,r4,4512
  210458:	02102280 	call	210228 <I2C_write>
  21045c:	e0bfff15 	stw	r2,-4(fp)
  210460:	000d883a 	mov	r6,zero
  210464:	01401204 	movi	r5,72
  210468:	010008b4 	movhi	r4,34
  21046c:	21046804 	addi	r4,r4,4512
  210470:	02101100 	call	210110 <I2C_start>
  210474:	e0bfff15 	stw	r2,-4(fp)
  210478:	000d883a 	mov	r6,zero
  21047c:	01400084 	movi	r5,2
  210480:	010008b4 	movhi	r4,34
  210484:	21046804 	addi	r4,r4,4512
  210488:	02102280 	call	210228 <I2C_write>
  21048c:	e0bfff15 	stw	r2,-4(fp)
  210490:	000d883a 	mov	r6,zero
  210494:	01400b44 	movi	r5,45
  210498:	010008b4 	movhi	r4,34
  21049c:	21046804 	addi	r4,r4,4512
  2104a0:	02102280 	call	210228 <I2C_write>
  2104a4:	e0bfff15 	stw	r2,-4(fp)
  2104a8:	01800044 	movi	r6,1
  2104ac:	000b883a 	mov	r5,zero
  2104b0:	010008b4 	movhi	r4,34
  2104b4:	21046804 	addi	r4,r4,4512
  2104b8:	02102280 	call	210228 <I2C_write>
  2104bc:	e0bfff15 	stw	r2,-4(fp)
  2104c0:	000d883a 	mov	r6,zero
  2104c4:	01401204 	movi	r5,72
  2104c8:	010008b4 	movhi	r4,34
  2104cc:	21046804 	addi	r4,r4,4512
  2104d0:	02101100 	call	210110 <I2C_start>
  2104d4:	e0bfff15 	stw	r2,-4(fp)
  2104d8:	000d883a 	mov	r6,zero
  2104dc:	014000c4 	movi	r5,3
  2104e0:	010008b4 	movhi	r4,34
  2104e4:	21046804 	addi	r4,r4,4512
  2104e8:	02102280 	call	210228 <I2C_write>
  2104ec:	e0bfff15 	stw	r2,-4(fp)
  2104f0:	000d883a 	mov	r6,zero
  2104f4:	01400dc4 	movi	r5,55
  2104f8:	010008b4 	movhi	r4,34
  2104fc:	21046804 	addi	r4,r4,4512
  210500:	02102280 	call	210228 <I2C_write>
  210504:	e0bfff15 	stw	r2,-4(fp)
  210508:	01800044 	movi	r6,1
  21050c:	000b883a 	mov	r5,zero
  210510:	010008b4 	movhi	r4,34
  210514:	21046804 	addi	r4,r4,4512
  210518:	02102280 	call	210228 <I2C_write>
  21051c:	e0bfff15 	stw	r2,-4(fp)
  210520:	0001883a 	nop
  210524:	e037883a 	mov	sp,fp
  210528:	dfc00117 	ldw	ra,4(sp)
  21052c:	df000017 	ldw	fp,0(sp)
  210530:	dec00204 	addi	sp,sp,8
  210534:	f800283a 	ret

00210538 <testEEPROM>:
  210538:	defffc04 	addi	sp,sp,-16
  21053c:	dfc00315 	stw	ra,12(sp)
  210540:	df000215 	stw	fp,8(sp)
  210544:	df000204 	addi	fp,sp,8
  210548:	000d883a 	mov	r6,zero
  21054c:	01401404 	movi	r5,80
  210550:	010008b4 	movhi	r4,34
  210554:	21046804 	addi	r4,r4,4512
  210558:	02101100 	call	210110 <I2C_start>
  21055c:	e0bffe15 	stw	r2,-8(fp)
  210560:	000d883a 	mov	r6,zero
  210564:	000b883a 	mov	r5,zero
  210568:	010008b4 	movhi	r4,34
  21056c:	21046804 	addi	r4,r4,4512
  210570:	02102280 	call	210228 <I2C_write>
  210574:	e0bffe15 	stw	r2,-8(fp)
  210578:	000d883a 	mov	r6,zero
  21057c:	000b883a 	mov	r5,zero
  210580:	010008b4 	movhi	r4,34
  210584:	21046804 	addi	r4,r4,4512
  210588:	02102280 	call	210228 <I2C_write>
  21058c:	e0bffe15 	stw	r2,-8(fp)
  210590:	01800044 	movi	r6,1
  210594:	01401404 	movi	r5,80
  210598:	010008b4 	movhi	r4,34
  21059c:	21046804 	addi	r4,r4,4512
  2105a0:	02101100 	call	210110 <I2C_start>
  2105a4:	e0bffe15 	stw	r2,-8(fp)
  2105a8:	01400044 	movi	r5,1
  2105ac:	010008b4 	movhi	r4,34
  2105b0:	21046804 	addi	r4,r4,4512
  2105b4:	02101ac0 	call	2101ac <I2C_read>
  2105b8:	e0bfff05 	stb	r2,-4(fp)
  2105bc:	000d883a 	mov	r6,zero
  2105c0:	01401404 	movi	r5,80
  2105c4:	010008b4 	movhi	r4,34
  2105c8:	21046804 	addi	r4,r4,4512
  2105cc:	02101100 	call	210110 <I2C_start>
  2105d0:	e0bffe15 	stw	r2,-8(fp)
  2105d4:	000d883a 	mov	r6,zero
  2105d8:	000b883a 	mov	r5,zero
  2105dc:	010008b4 	movhi	r4,34
  2105e0:	21046804 	addi	r4,r4,4512
  2105e4:	02102280 	call	210228 <I2C_write>
  2105e8:	e0bffe15 	stw	r2,-8(fp)
  2105ec:	000d883a 	mov	r6,zero
  2105f0:	01400044 	movi	r5,1
  2105f4:	010008b4 	movhi	r4,34
  2105f8:	21046804 	addi	r4,r4,4512
  2105fc:	02102280 	call	210228 <I2C_write>
  210600:	e0bffe15 	stw	r2,-8(fp)
  210604:	01800044 	movi	r6,1
  210608:	01401684 	movi	r5,90
  21060c:	010008b4 	movhi	r4,34
  210610:	21046804 	addi	r4,r4,4512
  210614:	02102280 	call	210228 <I2C_write>
  210618:	e0bffe15 	stw	r2,-8(fp)
  21061c:	000d883a 	mov	r6,zero
  210620:	01401404 	movi	r5,80
  210624:	010008b4 	movhi	r4,34
  210628:	21046804 	addi	r4,r4,4512
  21062c:	02101100 	call	210110 <I2C_start>
  210630:	e0bffe15 	stw	r2,-8(fp)
  210634:	000d883a 	mov	r6,zero
  210638:	000b883a 	mov	r5,zero
  21063c:	010008b4 	movhi	r4,34
  210640:	21046804 	addi	r4,r4,4512
  210644:	02102280 	call	210228 <I2C_write>
  210648:	e0bffe15 	stw	r2,-8(fp)
  21064c:	000d883a 	mov	r6,zero
  210650:	01400044 	movi	r5,1
  210654:	010008b4 	movhi	r4,34
  210658:	21046804 	addi	r4,r4,4512
  21065c:	02102280 	call	210228 <I2C_write>
  210660:	e0bffe15 	stw	r2,-8(fp)
  210664:	01800044 	movi	r6,1
  210668:	01401404 	movi	r5,80
  21066c:	010008b4 	movhi	r4,34
  210670:	21046804 	addi	r4,r4,4512
  210674:	02101100 	call	210110 <I2C_start>
  210678:	e0bffe15 	stw	r2,-8(fp)
  21067c:	01400044 	movi	r5,1
  210680:	010008b4 	movhi	r4,34
  210684:	21046804 	addi	r4,r4,4512
  210688:	02101ac0 	call	2101ac <I2C_read>
  21068c:	e0bfff05 	stb	r2,-4(fp)
  210690:	0001883a 	nop
  210694:	e037883a 	mov	sp,fp
  210698:	dfc00117 	ldw	ra,4(sp)
  21069c:	df000017 	ldw	fp,0(sp)
  2106a0:	dec00204 	addi	sp,sp,8
  2106a4:	f800283a 	ret

002106a8 <boot_from_flash>:
  2106a8:	deffff04 	addi	sp,sp,-4
  2106ac:	df000015 	stw	fp,0(sp)
  2106b0:	d839883a 	mov	fp,sp
  2106b4:	00c000c4 	movi	r3,3
  2106b8:	008008b4 	movhi	r2,34
  2106bc:	10847104 	addi	r2,r2,4548
  2106c0:	10c00035 	stwio	r3,0(r2)
  2106c4:	0001883a 	nop
  2106c8:	008008b4 	movhi	r2,34
  2106cc:	10847304 	addi	r2,r2,4556
  2106d0:	10800037 	ldwio	r2,0(r2)
  2106d4:	10800060 	cmpeqi	r2,r2,1
  2106d8:	103ffb1e 	bne	r2,zero,2106c8 <_gp+0xffff1248>
  2106dc:	00c00044 	movi	r3,1
  2106e0:	008008b4 	movhi	r2,34
  2106e4:	10847004 	addi	r2,r2,4544
  2106e8:	10c00035 	stwio	r3,0(r2)
  2106ec:	0001883a 	nop
  2106f0:	e037883a 	mov	sp,fp
  2106f4:	df000017 	ldw	fp,0(sp)
  2106f8:	dec00104 	addi	sp,sp,4
  2106fc:	f800283a 	ret

00210700 <Control_TCXO_DAC>:
  210700:	defff704 	addi	sp,sp,-36
  210704:	dfc00815 	stw	ra,32(sp)
  210708:	df000715 	stw	fp,28(sp)
  21070c:	df000704 	addi	fp,sp,28
  210710:	2005883a 	mov	r2,r4
  210714:	e17fff15 	stw	r5,-4(fp)
  210718:	e0bffe05 	stb	r2,-8(fp)
  21071c:	e0bffe03 	ldbu	r2,-8(fp)
  210720:	1000101e 	bne	r2,zero,210764 <Control_TCXO_DAC+0x64>
  210724:	008000c4 	movi	r2,3
  210728:	e0bffd05 	stb	r2,-12(fp)
  21072c:	e03ffd45 	stb	zero,-11(fp)
  210730:	e03ffd85 	stb	zero,-10(fp)
  210734:	e0bffd04 	addi	r2,fp,-12
  210738:	d8000215 	stw	zero,8(sp)
  21073c:	d8000115 	stw	zero,4(sp)
  210740:	d8000015 	stw	zero,0(sp)
  210744:	100f883a 	mov	r7,r2
  210748:	018000c4 	movi	r6,3
  21074c:	000b883a 	mov	r5,zero
  210750:	010008b4 	movhi	r4,34
  210754:	21044804 	addi	r4,r4,4384
  210758:	0214aec0 	call	214aec <alt_avalon_spi_command>
  21075c:	e0bffc15 	stw	r2,-16(fp)
  210760:	00001706 	br	2107c0 <Control_TCXO_DAC+0xc0>
  210764:	e03ffd05 	stb	zero,-12(fp)
  210768:	e0bfff17 	ldw	r2,-4(fp)
  21076c:	1080000b 	ldhu	r2,0(r2)
  210770:	10bfffcc 	andi	r2,r2,65535
  210774:	1004d23a 	srli	r2,r2,8
  210778:	e0bffd45 	stb	r2,-11(fp)
  21077c:	e0bfff17 	ldw	r2,-4(fp)
  210780:	1080000b 	ldhu	r2,0(r2)
  210784:	e0bffd85 	stb	r2,-10(fp)
  210788:	e0bfff17 	ldw	r2,-4(fp)
  21078c:	1080000b 	ldhu	r2,0(r2)
  210790:	d0a0060d 	sth	r2,-32744(gp)
  210794:	e0bffd04 	addi	r2,fp,-12
  210798:	d8000215 	stw	zero,8(sp)
  21079c:	d8000115 	stw	zero,4(sp)
  2107a0:	d8000015 	stw	zero,0(sp)
  2107a4:	100f883a 	mov	r7,r2
  2107a8:	018000c4 	movi	r6,3
  2107ac:	000b883a 	mov	r5,zero
  2107b0:	010008b4 	movhi	r4,34
  2107b4:	21044804 	addi	r4,r4,4384
  2107b8:	0214aec0 	call	214aec <alt_avalon_spi_command>
  2107bc:	e0bffc15 	stw	r2,-16(fp)
  2107c0:	0001883a 	nop
  2107c4:	e037883a 	mov	sp,fp
  2107c8:	dfc00117 	ldw	ra,4(sp)
  2107cc:	df000017 	ldw	fp,0(sp)
  2107d0:	dec00204 	addi	sp,sp,8
  2107d4:	f800283a 	ret

002107d8 <main>:
  2107d8:	deffe404 	addi	sp,sp,-112
  2107dc:	dfc01b15 	stw	ra,108(sp)
  2107e0:	df001a15 	stw	fp,104(sp)
  2107e4:	dc401915 	stw	r17,100(sp)
  2107e8:	dc001815 	stw	r16,96(sp)
  2107ec:	df001a04 	addi	fp,sp,104
  2107f0:	00800874 	movhi	r2,33
  2107f4:	109d4b04 	addi	r2,r2,29996
  2107f8:	e0bfed15 	stw	r2,-76(fp)
  2107fc:	01000874 	movhi	r4,33
  210800:	211ba204 	addi	r4,r4,28296
  210804:	02140840 	call	214084 <printf>
  210808:	000b883a 	mov	r5,zero
  21080c:	01000874 	movhi	r4,33
  210810:	211ba804 	addi	r4,r4,28320
  210814:	02140840 	call	214084 <printf>
  210818:	01000874 	movhi	r4,33
  21081c:	211baa04 	addi	r4,r4,28328
  210820:	02140840 	call	214084 <printf>
  210824:	01400044 	movi	r5,1
  210828:	01000874 	movhi	r4,33
  21082c:	211bac04 	addi	r4,r4,28336
  210830:	02140840 	call	214084 <printf>
  210834:	e03fee05 	stb	zero,-72(fp)
  210838:	e03fea05 	stb	zero,-88(fp)
  21083c:	e03fee45 	stb	zero,-71(fp)
  210840:	00864e04 	movi	r2,6456
  210844:	e0bfee8d 	sth	r2,-70(fp)
  210848:	00b8bcc4 	movi	r2,-7437
  21084c:	e0bfef0d 	sth	r2,-68(fp)
  210850:	e03feb15 	stw	zero,-84(fp)
  210854:	e03ff115 	stw	zero,-60(fp)
  210858:	e0bfee8b 	ldhu	r2,-70(fp)
  21085c:	e0bff20d 	sth	r2,-56(fp)
  210860:	e03ff315 	stw	zero,-52(fp)
  210864:	e0bfef0b 	ldhu	r2,-68(fp)
  210868:	e0bff40d 	sth	r2,-48(fp)
  21086c:	e03ff515 	stw	zero,-44(fp)
  210870:	e03ff60d 	sth	zero,-40(fp)
  210874:	e03ff705 	stb	zero,-36(fp)
  210878:	00c00184 	movi	r3,6
  21087c:	008008b4 	movhi	r2,34
  210880:	10845804 	addi	r2,r2,4448
  210884:	10c00035 	stwio	r3,0(r2)
  210888:	00c001c4 	movi	r3,7
  21088c:	008008b4 	movhi	r2,34
  210890:	10845804 	addi	r2,r2,4448
  210894:	10c00035 	stwio	r3,0(r2)
  210898:	009dfe84 	movi	r2,30714
  21089c:	d0a0020d 	sth	r2,-32760(gp)
  2108a0:	d1600204 	addi	r5,gp,-32760
  2108a4:	01000044 	movi	r4,1
  2108a8:	02107000 	call	210700 <Control_TCXO_DAC>
  2108ac:	018000b4 	movhi	r6,2
  2108b0:	31a1a804 	addi	r6,r6,-31072
  2108b4:	0140bef4 	movhi	r5,763
  2108b8:	297c2004 	addi	r5,r5,-3968
  2108bc:	010008b4 	movhi	r4,34
  2108c0:	21046804 	addi	r4,r4,4512
  2108c4:	02100580 	call	210058 <I2C_init>
  2108c8:	02104080 	call	210408 <Configure_LM75>
  2108cc:	008008b4 	movhi	r2,34
  2108d0:	10847804 	addi	r2,r2,4576
  2108d4:	10800023 	ldbuio	r2,0(r2)
  2108d8:	10803fcc 	andi	r2,r2,255
  2108dc:	1080008c 	andi	r2,r2,2
  2108e0:	e0bfee05 	stb	r2,-72(fp)
  2108e4:	e0bfee03 	ldbu	r2,-72(fp)
  2108e8:	10000326 	beq	r2,zero,2108f8 <main+0x120>
  2108ec:	e0bff704 	addi	r2,fp,-36
  2108f0:	1009883a 	mov	r4,r2
  2108f4:	02131b00 	call	2131b0 <vctcxo_tamer_isr>
  2108f8:	e0bfea03 	ldbu	r2,-88(fp)
  2108fc:	e0bfee45 	stb	r2,-71(fp)
  210900:	008008b4 	movhi	r2,34
  210904:	10847804 	addi	r2,r2,4576
  210908:	10800023 	ldbuio	r2,0(r2)
  21090c:	10803fcc 	andi	r2,r2,255
  210910:	1080004c 	andi	r2,r2,1
  210914:	e0bfea05 	stb	r2,-88(fp)
  210918:	e0ffee43 	ldbu	r3,-71(fp)
  21091c:	e0bfea03 	ldbu	r2,-88(fp)
  210920:	18800a26 	beq	r3,r2,21094c <main+0x174>
  210924:	e0bfea03 	ldbu	r2,-88(fp)
  210928:	10800058 	cmpnei	r2,r2,1
  21092c:	1000041e 	bne	r2,zero,210940 <main+0x168>
  210930:	02132980 	call	213298 <vctcxo_tamer_init>
  210934:	00800044 	movi	r2,1
  210938:	e0bff705 	stb	r2,-36(fp)
  21093c:	00000306 	br	21094c <main+0x174>
  210940:	02132d40 	call	2132d4 <vctcxo_tamer_dis>
  210944:	e03feb15 	stw	zero,-84(fp)
  210948:	e03ff705 	stb	zero,-36(fp)
  21094c:	e0bff703 	ldbu	r2,-36(fp)
  210950:	10803fcc 	andi	r2,r2,255
  210954:	10011e26 	beq	r2,zero,210dd0 <main+0x5f8>
  210958:	e03ff705 	stb	zero,-36(fp)
  21095c:	e0bfeb17 	ldw	r2,-84(fp)
  210960:	10c00060 	cmpeqi	r3,r2,1
  210964:	18001e1e 	bne	r3,zero,2109e0 <main+0x208>
  210968:	0080052e 	bgeu	zero,r2,210980 <main+0x1a8>
  21096c:	10c000a0 	cmpeqi	r3,r2,2
  210970:	18003d1e 	bne	r3,zero,210a68 <main+0x290>
  210974:	108000e0 	cmpeqi	r2,r2,3
  210978:	10008a1e 	bne	r2,zero,210ba4 <main+0x3cc>
  21097c:	00011006 	br	210dc0 <main+0x5e8>
  210980:	e0bfee8b 	ldhu	r2,-70(fp)
  210984:	100b883a 	mov	r5,r2
  210988:	01000204 	movi	r4,8
  21098c:	02131440 	call	213144 <vctcxo_trim_dac_write>
  210990:	e0bfee8b 	ldhu	r2,-70(fp)
  210994:	d0a0020d 	sth	r2,-32760(gp)
  210998:	d1600204 	addi	r5,gp,-32760
  21099c:	01000044 	movi	r4,1
  2109a0:	02107000 	call	210700 <Control_TCXO_DAC>
  2109a4:	00800044 	movi	r2,1
  2109a8:	e0bfeb15 	stw	r2,-84(fp)
  2109ac:	01000874 	movhi	r4,33
  2109b0:	211bb204 	addi	r4,r4,28360
  2109b4:	02140840 	call	214084 <printf>
  2109b8:	01000874 	movhi	r4,33
  2109bc:	211bb804 	addi	r4,r4,28384
  2109c0:	02140840 	call	214084 <printf>
  2109c4:	d0a0020b 	ldhu	r2,-32760(gp)
  2109c8:	10bfffcc 	andi	r2,r2,65535
  2109cc:	100b883a 	mov	r5,r2
  2109d0:	01000874 	movhi	r4,33
  2109d4:	211bbb04 	addi	r4,r4,28396
  2109d8:	02140840 	call	214084 <printf>
  2109dc:	0000f806 	br	210dc0 <main+0x5e8>
  2109e0:	e0bff817 	ldw	r2,-32(fp)
  2109e4:	e0bff115 	stw	r2,-60(fp)
  2109e8:	01000874 	movhi	r4,33
  2109ec:	211bbd04 	addi	r4,r4,28404
  2109f0:	02140840 	call	214084 <printf>
  2109f4:	e0bff817 	ldw	r2,-32(fp)
  2109f8:	100b883a 	mov	r5,r2
  2109fc:	01000874 	movhi	r4,33
  210a00:	211bc004 	addi	r4,r4,28416
  210a04:	02140840 	call	214084 <printf>
  210a08:	e0bfef0b 	ldhu	r2,-68(fp)
  210a0c:	100b883a 	mov	r5,r2
  210a10:	01000204 	movi	r4,8
  210a14:	02131440 	call	213144 <vctcxo_trim_dac_write>
  210a18:	e0bfef0b 	ldhu	r2,-68(fp)
  210a1c:	d0a0020d 	sth	r2,-32760(gp)
  210a20:	d1600204 	addi	r5,gp,-32760
  210a24:	01000044 	movi	r4,1
  210a28:	02107000 	call	210700 <Control_TCXO_DAC>
  210a2c:	00800084 	movi	r2,2
  210a30:	e0bfeb15 	stw	r2,-84(fp)
  210a34:	01000874 	movhi	r4,33
  210a38:	211bc204 	addi	r4,r4,28424
  210a3c:	02140840 	call	214084 <printf>
  210a40:	01000874 	movhi	r4,33
  210a44:	211bb804 	addi	r4,r4,28384
  210a48:	02140840 	call	214084 <printf>
  210a4c:	d0a0020b 	ldhu	r2,-32760(gp)
  210a50:	10bfffcc 	andi	r2,r2,65535
  210a54:	100b883a 	mov	r5,r2
  210a58:	01000874 	movhi	r4,33
  210a5c:	211bbb04 	addi	r4,r4,28396
  210a60:	02140840 	call	214084 <printf>
  210a64:	0000d606 	br	210dc0 <main+0x5e8>
  210a68:	01400044 	movi	r5,1
  210a6c:	01000704 	movi	r4,28
  210a70:	0212e2c0 	call	212e2c <vctcxo_tamer_write>
  210a74:	e0bff817 	ldw	r2,-32(fp)
  210a78:	e0bff315 	stw	r2,-52(fp)
  210a7c:	01000874 	movhi	r4,33
  210a80:	211bbd04 	addi	r4,r4,28404
  210a84:	02140840 	call	214084 <printf>
  210a88:	e0bff817 	ldw	r2,-32(fp)
  210a8c:	100b883a 	mov	r5,r2
  210a90:	01000874 	movhi	r4,33
  210a94:	211bc004 	addi	r4,r4,28416
  210a98:	02140840 	call	214084 <printf>
  210a9c:	e0bff40b 	ldhu	r2,-48(fp)
  210aa0:	10ffffcc 	andi	r3,r2,65535
  210aa4:	e0bff20b 	ldhu	r2,-56(fp)
  210aa8:	10bfffcc 	andi	r2,r2,65535
  210aac:	1885c83a 	sub	r2,r3,r2
  210ab0:	1009883a 	mov	r4,r2
  210ab4:	0213e780 	call	213e78 <__floatsisf>
  210ab8:	1021883a 	mov	r16,r2
  210abc:	e0fff317 	ldw	r3,-52(fp)
  210ac0:	e0bff117 	ldw	r2,-60(fp)
  210ac4:	1885c83a 	sub	r2,r3,r2
  210ac8:	1009883a 	mov	r4,r2
  210acc:	0213e780 	call	213e78 <__floatsisf>
  210ad0:	1007883a 	mov	r3,r2
  210ad4:	180b883a 	mov	r5,r3
  210ad8:	8009883a 	mov	r4,r16
  210adc:	02135980 	call	213598 <__divsf3>
  210ae0:	1007883a 	mov	r3,r2
  210ae4:	1805883a 	mov	r2,r3
  210ae8:	e0bff515 	stw	r2,-44(fp)
  210aec:	e43ff20b 	ldhu	r16,-56(fp)
  210af0:	e47ff517 	ldw	r17,-44(fp)
  210af4:	e0bff117 	ldw	r2,-60(fp)
  210af8:	1009883a 	mov	r4,r2
  210afc:	0213e780 	call	213e78 <__floatsisf>
  210b00:	1007883a 	mov	r3,r2
  210b04:	180b883a 	mov	r5,r3
  210b08:	8809883a 	mov	r4,r17
  210b0c:	02139d80 	call	2139d8 <__mulsf3>
  210b10:	1007883a 	mov	r3,r2
  210b14:	1805883a 	mov	r2,r3
  210b18:	1009883a 	mov	r4,r2
  210b1c:	02133100 	call	213310 <lroundf>
  210b20:	8085c83a 	sub	r2,r16,r2
  210b24:	e0bff60d 	sth	r2,-40(fp)
  210b28:	e0bff60b 	ldhu	r2,-40(fp)
  210b2c:	10bfffcc 	andi	r2,r2,65535
  210b30:	100b883a 	mov	r5,r2
  210b34:	01000204 	movi	r4,8
  210b38:	02131440 	call	213144 <vctcxo_trim_dac_write>
  210b3c:	e0bff60b 	ldhu	r2,-40(fp)
  210b40:	d0a0020d 	sth	r2,-32760(gp)
  210b44:	d1600204 	addi	r5,gp,-32760
  210b48:	01000044 	movi	r4,1
  210b4c:	02107000 	call	210700 <Control_TCXO_DAC>
  210b50:	008000c4 	movi	r2,3
  210b54:	e0bfeb15 	stw	r2,-84(fp)
  210b58:	01000874 	movhi	r4,33
  210b5c:	211bc804 	addi	r4,r4,28448
  210b60:	02140840 	call	214084 <printf>
  210b64:	01000874 	movhi	r4,33
  210b68:	211bb804 	addi	r4,r4,28384
  210b6c:	02140840 	call	214084 <printf>
  210b70:	d0a0020b 	ldhu	r2,-32760(gp)
  210b74:	10bfffcc 	andi	r2,r2,65535
  210b78:	100b883a 	mov	r5,r2
  210b7c:	01000874 	movhi	r4,33
  210b80:	211bce04 	addi	r4,r4,28472
  210b84:	02140840 	call	214084 <printf>
  210b88:	01000874 	movhi	r4,33
  210b8c:	211bd004 	addi	r4,r4,28480
  210b90:	02141500 	call	214150 <puts>
  210b94:	01000874 	movhi	r4,33
  210b98:	211bd404 	addi	r4,r4,28496
  210b9c:	02141500 	call	214150 <puts>
  210ba0:	00008706 	br	210dc0 <main+0x5e8>
  210ba4:	e0bff903 	ldbu	r2,-28(fp)
  210ba8:	10803fcc 	andi	r2,r2,255
  210bac:	10002826 	beq	r2,zero,210c50 <main+0x478>
  210bb0:	d420060b 	ldhu	r16,-32744(gp)
  210bb4:	e0bff817 	ldw	r2,-32(fp)
  210bb8:	1009883a 	mov	r4,r2
  210bbc:	0213e780 	call	213e78 <__floatsisf>
  210bc0:	1007883a 	mov	r3,r2
  210bc4:	e0bff517 	ldw	r2,-44(fp)
  210bc8:	100b883a 	mov	r5,r2
  210bcc:	1809883a 	mov	r4,r3
  210bd0:	02139d80 	call	2139d8 <__mulsf3>
  210bd4:	1007883a 	mov	r3,r2
  210bd8:	1805883a 	mov	r2,r3
  210bdc:	1009883a 	mov	r4,r2
  210be0:	02133100 	call	213310 <lroundf>
  210be4:	8085c83a 	sub	r2,r16,r2
  210be8:	d0a0060d 	sth	r2,-32744(gp)
  210bec:	d0a0060b 	ldhu	r2,-32744(gp)
  210bf0:	10bfffcc 	andi	r2,r2,65535
  210bf4:	100b883a 	mov	r5,r2
  210bf8:	01000204 	movi	r4,8
  210bfc:	02131440 	call	213144 <vctcxo_trim_dac_write>
  210c00:	d0a0060b 	ldhu	r2,-32744(gp)
  210c04:	d0a0020d 	sth	r2,-32760(gp)
  210c08:	d1600204 	addi	r5,gp,-32760
  210c0c:	01000044 	movi	r4,1
  210c10:	02107000 	call	210700 <Control_TCXO_DAC>
  210c14:	01000874 	movhi	r4,33
  210c18:	211bdb04 	addi	r4,r4,28524
  210c1c:	02140840 	call	214084 <printf>
  210c20:	d0a0020b 	ldhu	r2,-32760(gp)
  210c24:	10bfffcc 	andi	r2,r2,65535
  210c28:	100b883a 	mov	r5,r2
  210c2c:	01000874 	movhi	r4,33
  210c30:	211bdd04 	addi	r4,r4,28532
  210c34:	02140840 	call	214084 <printf>
  210c38:	e0bff817 	ldw	r2,-32(fp)
  210c3c:	100b883a 	mov	r5,r2
  210c40:	01000874 	movhi	r4,33
  210c44:	211bc004 	addi	r4,r4,28416
  210c48:	02140840 	call	214084 <printf>
  210c4c:	00005b06 	br	210dbc <main+0x5e4>
  210c50:	e0bffb03 	ldbu	r2,-20(fp)
  210c54:	10803fcc 	andi	r2,r2,255
  210c58:	10002b26 	beq	r2,zero,210d08 <main+0x530>
  210c5c:	d420060b 	ldhu	r16,-32744(gp)
  210c60:	e0bffa17 	ldw	r2,-24(fp)
  210c64:	1009883a 	mov	r4,r2
  210c68:	0213e780 	call	213e78 <__floatsisf>
  210c6c:	1007883a 	mov	r3,r2
  210c70:	e0bff517 	ldw	r2,-44(fp)
  210c74:	100b883a 	mov	r5,r2
  210c78:	1809883a 	mov	r4,r3
  210c7c:	02139d80 	call	2139d8 <__mulsf3>
  210c80:	1007883a 	mov	r3,r2
  210c84:	1805883a 	mov	r2,r3
  210c88:	1009883a 	mov	r4,r2
  210c8c:	02133100 	call	213310 <lroundf>
  210c90:	01400284 	movi	r5,10
  210c94:	1009883a 	mov	r4,r2
  210c98:	02133bc0 	call	2133bc <__divsi3>
  210c9c:	8085c83a 	sub	r2,r16,r2
  210ca0:	d0a0060d 	sth	r2,-32744(gp)
  210ca4:	d0a0060b 	ldhu	r2,-32744(gp)
  210ca8:	10bfffcc 	andi	r2,r2,65535
  210cac:	100b883a 	mov	r5,r2
  210cb0:	01000204 	movi	r4,8
  210cb4:	02131440 	call	213144 <vctcxo_trim_dac_write>
  210cb8:	d0a0060b 	ldhu	r2,-32744(gp)
  210cbc:	d0a0020d 	sth	r2,-32760(gp)
  210cc0:	d1600204 	addi	r5,gp,-32760
  210cc4:	01000044 	movi	r4,1
  210cc8:	02107000 	call	210700 <Control_TCXO_DAC>
  210ccc:	01000874 	movhi	r4,33
  210cd0:	211bde04 	addi	r4,r4,28536
  210cd4:	02140840 	call	214084 <printf>
  210cd8:	d0a0020b 	ldhu	r2,-32760(gp)
  210cdc:	10bfffcc 	andi	r2,r2,65535
  210ce0:	100b883a 	mov	r5,r2
  210ce4:	01000874 	movhi	r4,33
  210ce8:	211bdd04 	addi	r4,r4,28532
  210cec:	02140840 	call	214084 <printf>
  210cf0:	e0bffa17 	ldw	r2,-24(fp)
  210cf4:	100b883a 	mov	r5,r2
  210cf8:	01000874 	movhi	r4,33
  210cfc:	211bc004 	addi	r4,r4,28416
  210d00:	02140840 	call	214084 <printf>
  210d04:	00002d06 	br	210dbc <main+0x5e4>
  210d08:	e0bffd03 	ldbu	r2,-12(fp)
  210d0c:	10803fcc 	andi	r2,r2,255
  210d10:	10002a26 	beq	r2,zero,210dbc <main+0x5e4>
  210d14:	d420060b 	ldhu	r16,-32744(gp)
  210d18:	e0bffc17 	ldw	r2,-16(fp)
  210d1c:	1009883a 	mov	r4,r2
  210d20:	0213e780 	call	213e78 <__floatsisf>
  210d24:	1007883a 	mov	r3,r2
  210d28:	e0bff517 	ldw	r2,-44(fp)
  210d2c:	100b883a 	mov	r5,r2
  210d30:	1809883a 	mov	r4,r3
  210d34:	02139d80 	call	2139d8 <__mulsf3>
  210d38:	1007883a 	mov	r3,r2
  210d3c:	1805883a 	mov	r2,r3
  210d40:	1009883a 	mov	r4,r2
  210d44:	02133100 	call	213310 <lroundf>
  210d48:	01401904 	movi	r5,100
  210d4c:	1009883a 	mov	r4,r2
  210d50:	02133bc0 	call	2133bc <__divsi3>
  210d54:	8085c83a 	sub	r2,r16,r2
  210d58:	d0a0060d 	sth	r2,-32744(gp)
  210d5c:	d0a0060b 	ldhu	r2,-32744(gp)
  210d60:	10bfffcc 	andi	r2,r2,65535
  210d64:	100b883a 	mov	r5,r2
  210d68:	01000204 	movi	r4,8
  210d6c:	02131440 	call	213144 <vctcxo_trim_dac_write>
  210d70:	d0a0060b 	ldhu	r2,-32744(gp)
  210d74:	d0a0020d 	sth	r2,-32760(gp)
  210d78:	d1600204 	addi	r5,gp,-32760
  210d7c:	01000044 	movi	r4,1
  210d80:	02107000 	call	210700 <Control_TCXO_DAC>
  210d84:	01000874 	movhi	r4,33
  210d88:	211be004 	addi	r4,r4,28544
  210d8c:	02140840 	call	214084 <printf>
  210d90:	d0a0020b 	ldhu	r2,-32760(gp)
  210d94:	10bfffcc 	andi	r2,r2,65535
  210d98:	100b883a 	mov	r5,r2
  210d9c:	01000874 	movhi	r4,33
  210da0:	211bdd04 	addi	r4,r4,28532
  210da4:	02140840 	call	214084 <printf>
  210da8:	e0bffc17 	ldw	r2,-16(fp)
  210dac:	100b883a 	mov	r5,r2
  210db0:	01000874 	movhi	r4,33
  210db4:	211bc004 	addi	r4,r4,28416
  210db8:	02140840 	call	214084 <printf>
  210dbc:	0001883a 	nop
  210dc0:	0009883a 	mov	r4,zero
  210dc4:	0212e740 	call	212e74 <vctcxo_tamer_reset_counters>
  210dc8:	01000044 	movi	r4,1
  210dcc:	0212ee00 	call	212ee0 <vctcxo_tamer_enable_isr>
  210dd0:	008008b4 	movhi	r2,34
  210dd4:	10848604 	addi	r2,r2,4632
  210dd8:	10800037 	ldwio	r2,0(r2)
  210ddc:	e0bff015 	stw	r2,-64(fp)
  210de0:	e0bff017 	ldw	r2,-64(fp)
  210de4:	1080004c 	andi	r2,r2,1
  210de8:	103eb81e 	bne	r2,zero,2108cc <_gp+0xffff144c>
  210dec:	01401004 	movi	r5,64
  210df0:	01000874 	movhi	r4,33
  210df4:	211d9b04 	addi	r4,r4,30316
  210df8:	02103480 	call	210348 <getFifoData>
  210dfc:	01801004 	movi	r6,64
  210e00:	000b883a 	mov	r5,zero
  210e04:	01000874 	movhi	r4,33
  210e08:	211d4b04 	addi	r4,r4,29996
  210e0c:	02140280 	call	214028 <memset>
  210e10:	d0202445 	stb	zero,-32623(gp)
  210e14:	d0a00017 	ldw	r2,-32768(gp)
  210e18:	d0e00117 	ldw	r3,-32764(gp)
  210e1c:	18c00003 	ldbu	r3,0(r3)
  210e20:	10c00005 	stb	r3,0(r2)
  210e24:	d0a00017 	ldw	r2,-32768(gp)
  210e28:	d0e00117 	ldw	r3,-32764(gp)
  210e2c:	18c00083 	ldbu	r3,2(r3)
  210e30:	10c00085 	stb	r3,2(r2)
  210e34:	d0a00017 	ldw	r2,-32768(gp)
  210e38:	d0e00117 	ldw	r3,-32764(gp)
  210e3c:	18c000c3 	ldbu	r3,3(r3)
  210e40:	10c000c5 	stb	r3,3(r2)
  210e44:	d0a00017 	ldw	r2,-32768(gp)
  210e48:	00c000c4 	movi	r3,3
  210e4c:	10c00045 	stb	r3,1(r2)
  210e50:	d0a00117 	ldw	r2,-32764(gp)
  210e54:	10800003 	ldbu	r2,0(r2)
  210e58:	10803fcc 	andi	r2,r2,255
  210e5c:	10c014e0 	cmpeqi	r3,r2,83
  210e60:	1804591e 	bne	r3,zero,211fc8 <main+0x17f0>
  210e64:	10c01508 	cmpgei	r3,r2,84
  210e68:	18000d1e 	bne	r3,zero,210ea0 <main+0x6c8>
  210e6c:	10c00860 	cmpeqi	r3,r2,33
  210e70:	18005a1e 	bne	r3,zero,210fdc <main+0x804>
  210e74:	10c00888 	cmpgei	r3,r2,34
  210e78:	1800041e 	bne	r3,zero,210e8c <main+0x6b4>
  210e7c:	10001826 	beq	r2,zero,210ee0 <main+0x708>
  210e80:	10800820 	cmpeqi	r2,r2,32
  210e84:	1000281e 	bne	r2,zero,210f28 <main+0x750>
  210e88:	00065006 	br	2127cc <main+0x1ff4>
  210e8c:	10c008a0 	cmpeqi	r3,r2,34
  210e90:	18008a1e 	bne	r3,zero,2110bc <main+0x8e4>
  210e94:	10800b20 	cmpeqi	r2,r2,44
  210e98:	1005551e 	bne	r2,zero,2123f0 <main+0x1c18>
  210e9c:	00064b06 	br	2127cc <main+0x1ff4>
  210ea0:	10c01860 	cmpeqi	r3,r2,97
  210ea4:	1803e61e 	bne	r3,zero,211e40 <main+0x1668>
  210ea8:	10c01888 	cmpgei	r3,r2,98
  210eac:	1800051e 	bne	r3,zero,210ec4 <main+0x6ec>
  210eb0:	10c01560 	cmpeqi	r3,r2,85
  210eb4:	1800be1e 	bne	r3,zero,2111b0 <main+0x9d8>
  210eb8:	108015a0 	cmpeqi	r2,r2,86
  210ebc:	1000f41e 	bne	r2,zero,211290 <main+0xab8>
  210ec0:	00064206 	br	2127cc <main+0x1ff4>
  210ec4:	10c02320 	cmpeqi	r3,r2,140
  210ec8:	18012e1e 	bne	r3,zero,211384 <main+0xbac>
  210ecc:	10c02360 	cmpeqi	r3,r2,141
  210ed0:	18025c1e 	bne	r3,zero,211844 <main+0x106c>
  210ed4:	108018a0 	cmpeqi	r2,r2,98
  210ed8:	1003291e 	bne	r2,zero,211b80 <main+0x13a8>
  210edc:	00063b06 	br	2127cc <main+0x1ff4>
  210ee0:	d0a00017 	ldw	r2,-32768(gp)
  210ee4:	00c00044 	movi	r3,1
  210ee8:	10c00205 	stb	r3,8(r2)
  210eec:	d0a00017 	ldw	r2,-32768(gp)
  210ef0:	00c00444 	movi	r3,17
  210ef4:	10c00245 	stb	r3,9(r2)
  210ef8:	d0a00017 	ldw	r2,-32768(gp)
  210efc:	00c00044 	movi	r3,1
  210f00:	10c00285 	stb	r3,10(r2)
  210f04:	d0a00017 	ldw	r2,-32768(gp)
  210f08:	100002c5 	stb	zero,11(r2)
  210f0c:	d0a00017 	ldw	r2,-32768(gp)
  210f10:	00c00044 	movi	r3,1
  210f14:	10c00305 	stb	r3,12(r2)
  210f18:	d0a00017 	ldw	r2,-32768(gp)
  210f1c:	00c00044 	movi	r3,1
  210f20:	10c00045 	stb	r3,1(r2)
  210f24:	00063606 	br	212800 <main+0x2028>
  210f28:	d0a00117 	ldw	r2,-32764(gp)
  210f2c:	10800203 	ldbu	r2,8(r2)
  210f30:	10803fcc 	andi	r2,r2,255
  210f34:	10c00060 	cmpeqi	r3,r2,1
  210f38:	1800081e 	bne	r3,zero,210f5c <main+0x784>
  210f3c:	10c000a0 	cmpeqi	r3,r2,2
  210f40:	18000b1e 	bne	r3,zero,210f70 <main+0x798>
  210f44:	10001d1e 	bne	r2,zero,210fbc <main+0x7e4>
  210f48:	00c001c4 	movi	r3,7
  210f4c:	008008b4 	movhi	r2,34
  210f50:	10845804 	addi	r2,r2,4448
  210f54:	10c00035 	stwio	r3,0(r2)
  210f58:	00001c06 	br	210fcc <main+0x7f4>
  210f5c:	00c00184 	movi	r3,6
  210f60:	008008b4 	movhi	r2,34
  210f64:	10845804 	addi	r2,r2,4448
  210f68:	10c00035 	stwio	r3,0(r2)
  210f6c:	00001706 	br	210fcc <main+0x7f4>
  210f70:	00c00184 	movi	r3,6
  210f74:	008008b4 	movhi	r2,34
  210f78:	10845804 	addi	r2,r2,4448
  210f7c:	10c00035 	stwio	r3,0(r2)
  210f80:	0001883a 	nop
  210f84:	0001883a 	nop
  210f88:	0001883a 	nop
  210f8c:	0001883a 	nop
  210f90:	0001883a 	nop
  210f94:	0001883a 	nop
  210f98:	0001883a 	nop
  210f9c:	0001883a 	nop
  210fa0:	0001883a 	nop
  210fa4:	0001883a 	nop
  210fa8:	00c001c4 	movi	r3,7
  210fac:	008008b4 	movhi	r2,34
  210fb0:	10845804 	addi	r2,r2,4448
  210fb4:	10c00035 	stwio	r3,0(r2)
  210fb8:	00000406 	br	210fcc <main+0x7f4>
  210fbc:	d0a02443 	ldbu	r2,-32623(gp)
  210fc0:	10800044 	addi	r2,r2,1
  210fc4:	d0a02445 	stb	r2,-32623(gp)
  210fc8:	0001883a 	nop
  210fcc:	d0a00017 	ldw	r2,-32768(gp)
  210fd0:	00c00044 	movi	r3,1
  210fd4:	10c00045 	stb	r3,1(r2)
  210fd8:	00060906 	br	212800 <main+0x2028>
  210fdc:	01000104 	movi	r4,4
  210fe0:	02102d40 	call	2102d4 <Check_many_blocks>
  210fe4:	10803fcc 	andi	r2,r2,255
  210fe8:	1005fc1e 	bne	r2,zero,2127dc <main+0x2004>
  210fec:	d0201c05 	stb	zero,-32656(gp)
  210ff0:	00002806 	br	211094 <main+0x8bc>
  210ff4:	d0e00117 	ldw	r3,-32764(gp)
  210ff8:	d0a01c03 	ldbu	r2,-32656(gp)
  210ffc:	10803fcc 	andi	r2,r2,255
  211000:	1085883a 	add	r2,r2,r2
  211004:	1085883a 	add	r2,r2,r2
  211008:	100b883a 	mov	r5,r2
  21100c:	d1200117 	ldw	r4,-32764(gp)
  211010:	d0a01c03 	ldbu	r2,-32656(gp)
  211014:	10803fcc 	andi	r2,r2,255
  211018:	1085883a 	add	r2,r2,r2
  21101c:	1085883a 	add	r2,r2,r2
  211020:	2085883a 	add	r2,r4,r2
  211024:	10800204 	addi	r2,r2,8
  211028:	11000003 	ldbu	r4,0(r2)
  21102c:	00bfe004 	movi	r2,-128
  211030:	2084b03a 	or	r2,r4,r2
  211034:	1009883a 	mov	r4,r2
  211038:	1945883a 	add	r2,r3,r5
  21103c:	10800204 	addi	r2,r2,8
  211040:	11000005 	stb	r4,0(r2)
  211044:	d0e00117 	ldw	r3,-32764(gp)
  211048:	d0a01c03 	ldbu	r2,-32656(gp)
  21104c:	10803fcc 	andi	r2,r2,255
  211050:	1085883a 	add	r2,r2,r2
  211054:	1085883a 	add	r2,r2,r2
  211058:	10800204 	addi	r2,r2,8
  21105c:	1885883a 	add	r2,r3,r2
  211060:	d8000215 	stw	zero,8(sp)
  211064:	d8000115 	stw	zero,4(sp)
  211068:	d8000015 	stw	zero,0(sp)
  21106c:	100f883a 	mov	r7,r2
  211070:	01800104 	movi	r6,4
  211074:	000b883a 	mov	r5,zero
  211078:	010008b4 	movhi	r4,34
  21107c:	21045004 	addi	r4,r4,4416
  211080:	0214aec0 	call	214aec <alt_avalon_spi_command>
  211084:	e0bff015 	stw	r2,-64(fp)
  211088:	d0a01c03 	ldbu	r2,-32656(gp)
  21108c:	10800044 	addi	r2,r2,1
  211090:	d0a01c05 	stb	r2,-32656(gp)
  211094:	d0a00117 	ldw	r2,-32764(gp)
  211098:	10800083 	ldbu	r2,2(r2)
  21109c:	d0e01c03 	ldbu	r3,-32656(gp)
  2110a0:	10803fcc 	andi	r2,r2,255
  2110a4:	18c03fcc 	andi	r3,r3,255
  2110a8:	18bfd236 	bltu	r3,r2,210ff4 <_gp+0xffff1b74>
  2110ac:	d0a00017 	ldw	r2,-32768(gp)
  2110b0:	00c00044 	movi	r3,1
  2110b4:	10c00045 	stb	r3,1(r2)
  2110b8:	0005d106 	br	212800 <main+0x2028>
  2110bc:	01000104 	movi	r4,4
  2110c0:	02102d40 	call	2102d4 <Check_many_blocks>
  2110c4:	10803fcc 	andi	r2,r2,255
  2110c8:	1005c61e 	bne	r2,zero,2127e4 <main+0x200c>
  2110cc:	d0201c05 	stb	zero,-32656(gp)
  2110d0:	00002d06 	br	211188 <main+0x9b0>
  2110d4:	d0e00117 	ldw	r3,-32764(gp)
  2110d8:	d0a01c03 	ldbu	r2,-32656(gp)
  2110dc:	10803fcc 	andi	r2,r2,255
  2110e0:	1085883a 	add	r2,r2,r2
  2110e4:	100b883a 	mov	r5,r2
  2110e8:	d1200117 	ldw	r4,-32764(gp)
  2110ec:	d0a01c03 	ldbu	r2,-32656(gp)
  2110f0:	10803fcc 	andi	r2,r2,255
  2110f4:	1085883a 	add	r2,r2,r2
  2110f8:	2085883a 	add	r2,r4,r2
  2110fc:	10800204 	addi	r2,r2,8
  211100:	10800003 	ldbu	r2,0(r2)
  211104:	10801fcc 	andi	r2,r2,127
  211108:	1009883a 	mov	r4,r2
  21110c:	1945883a 	add	r2,r3,r5
  211110:	10800204 	addi	r2,r2,8
  211114:	11000005 	stb	r4,0(r2)
  211118:	d0e00117 	ldw	r3,-32764(gp)
  21111c:	d0a01c03 	ldbu	r2,-32656(gp)
  211120:	10803fcc 	andi	r2,r2,255
  211124:	1085883a 	add	r2,r2,r2
  211128:	10800204 	addi	r2,r2,8
  21112c:	1889883a 	add	r4,r3,r2
  211130:	d0e00017 	ldw	r3,-32768(gp)
  211134:	d0a01c03 	ldbu	r2,-32656(gp)
  211138:	10803fcc 	andi	r2,r2,255
  21113c:	1085883a 	add	r2,r2,r2
  211140:	1085883a 	add	r2,r2,r2
  211144:	10800084 	addi	r2,r2,2
  211148:	10800204 	addi	r2,r2,8
  21114c:	1885883a 	add	r2,r3,r2
  211150:	d8000215 	stw	zero,8(sp)
  211154:	d8800115 	stw	r2,4(sp)
  211158:	00800084 	movi	r2,2
  21115c:	d8800015 	stw	r2,0(sp)
  211160:	200f883a 	mov	r7,r4
  211164:	01800084 	movi	r6,2
  211168:	000b883a 	mov	r5,zero
  21116c:	010008b4 	movhi	r4,34
  211170:	21045004 	addi	r4,r4,4416
  211174:	0214aec0 	call	214aec <alt_avalon_spi_command>
  211178:	e0bff015 	stw	r2,-64(fp)
  21117c:	d0a01c03 	ldbu	r2,-32656(gp)
  211180:	10800044 	addi	r2,r2,1
  211184:	d0a01c05 	stb	r2,-32656(gp)
  211188:	d0a00117 	ldw	r2,-32764(gp)
  21118c:	10800083 	ldbu	r2,2(r2)
  211190:	d0e01c03 	ldbu	r3,-32656(gp)
  211194:	10803fcc 	andi	r2,r2,255
  211198:	18c03fcc 	andi	r3,r3,255
  21119c:	18bfcd36 	bltu	r3,r2,2110d4 <_gp+0xffff1c54>
  2111a0:	d0a00017 	ldw	r2,-32768(gp)
  2111a4:	00c00044 	movi	r3,1
  2111a8:	10c00045 	stb	r3,1(r2)
  2111ac:	00059406 	br	212800 <main+0x2028>
  2111b0:	01000104 	movi	r4,4
  2111b4:	02102d40 	call	2102d4 <Check_many_blocks>
  2111b8:	10803fcc 	andi	r2,r2,255
  2111bc:	10058b1e 	bne	r2,zero,2127ec <main+0x2014>
  2111c0:	d0201c05 	stb	zero,-32656(gp)
  2111c4:	00002806 	br	211268 <main+0xa90>
  2111c8:	d0e00117 	ldw	r3,-32764(gp)
  2111cc:	d0a01c03 	ldbu	r2,-32656(gp)
  2111d0:	10803fcc 	andi	r2,r2,255
  2111d4:	1085883a 	add	r2,r2,r2
  2111d8:	1085883a 	add	r2,r2,r2
  2111dc:	100b883a 	mov	r5,r2
  2111e0:	d1200117 	ldw	r4,-32764(gp)
  2111e4:	d0a01c03 	ldbu	r2,-32656(gp)
  2111e8:	10803fcc 	andi	r2,r2,255
  2111ec:	1085883a 	add	r2,r2,r2
  2111f0:	1085883a 	add	r2,r2,r2
  2111f4:	2085883a 	add	r2,r4,r2
  2111f8:	10800204 	addi	r2,r2,8
  2111fc:	11000003 	ldbu	r4,0(r2)
  211200:	00bfe004 	movi	r2,-128
  211204:	2084b03a 	or	r2,r4,r2
  211208:	1009883a 	mov	r4,r2
  21120c:	1945883a 	add	r2,r3,r5
  211210:	10800204 	addi	r2,r2,8
  211214:	11000005 	stb	r4,0(r2)
  211218:	d0e00117 	ldw	r3,-32764(gp)
  21121c:	d0a01c03 	ldbu	r2,-32656(gp)
  211220:	10803fcc 	andi	r2,r2,255
  211224:	1085883a 	add	r2,r2,r2
  211228:	1085883a 	add	r2,r2,r2
  21122c:	10800204 	addi	r2,r2,8
  211230:	1885883a 	add	r2,r3,r2
  211234:	d8000215 	stw	zero,8(sp)
  211238:	d8000115 	stw	zero,4(sp)
  21123c:	d8000015 	stw	zero,0(sp)
  211240:	100f883a 	mov	r7,r2
  211244:	01800104 	movi	r6,4
  211248:	01400044 	movi	r5,1
  21124c:	010008b4 	movhi	r4,34
  211250:	21045004 	addi	r4,r4,4416
  211254:	0214aec0 	call	214aec <alt_avalon_spi_command>
  211258:	e0bff015 	stw	r2,-64(fp)
  21125c:	d0a01c03 	ldbu	r2,-32656(gp)
  211260:	10800044 	addi	r2,r2,1
  211264:	d0a01c05 	stb	r2,-32656(gp)
  211268:	d0a00117 	ldw	r2,-32764(gp)
  21126c:	10800083 	ldbu	r2,2(r2)
  211270:	d0e01c03 	ldbu	r3,-32656(gp)
  211274:	10803fcc 	andi	r2,r2,255
  211278:	18c03fcc 	andi	r3,r3,255
  21127c:	18bfd236 	bltu	r3,r2,2111c8 <_gp+0xffff1d48>
  211280:	d0a00017 	ldw	r2,-32768(gp)
  211284:	00c00044 	movi	r3,1
  211288:	10c00045 	stb	r3,1(r2)
  21128c:	00055c06 	br	212800 <main+0x2028>
  211290:	01000104 	movi	r4,4
  211294:	02102d40 	call	2102d4 <Check_many_blocks>
  211298:	10803fcc 	andi	r2,r2,255
  21129c:	1005551e 	bne	r2,zero,2127f4 <main+0x201c>
  2112a0:	d0201c05 	stb	zero,-32656(gp)
  2112a4:	00002d06 	br	21135c <main+0xb84>
  2112a8:	d0e00117 	ldw	r3,-32764(gp)
  2112ac:	d0a01c03 	ldbu	r2,-32656(gp)
  2112b0:	10803fcc 	andi	r2,r2,255
  2112b4:	1085883a 	add	r2,r2,r2
  2112b8:	100b883a 	mov	r5,r2
  2112bc:	d1200117 	ldw	r4,-32764(gp)
  2112c0:	d0a01c03 	ldbu	r2,-32656(gp)
  2112c4:	10803fcc 	andi	r2,r2,255
  2112c8:	1085883a 	add	r2,r2,r2
  2112cc:	2085883a 	add	r2,r4,r2
  2112d0:	10800204 	addi	r2,r2,8
  2112d4:	10800003 	ldbu	r2,0(r2)
  2112d8:	10801fcc 	andi	r2,r2,127
  2112dc:	1009883a 	mov	r4,r2
  2112e0:	1945883a 	add	r2,r3,r5
  2112e4:	10800204 	addi	r2,r2,8
  2112e8:	11000005 	stb	r4,0(r2)
  2112ec:	d0e00117 	ldw	r3,-32764(gp)
  2112f0:	d0a01c03 	ldbu	r2,-32656(gp)
  2112f4:	10803fcc 	andi	r2,r2,255
  2112f8:	1085883a 	add	r2,r2,r2
  2112fc:	10800204 	addi	r2,r2,8
  211300:	1889883a 	add	r4,r3,r2
  211304:	d0e00017 	ldw	r3,-32768(gp)
  211308:	d0a01c03 	ldbu	r2,-32656(gp)
  21130c:	10803fcc 	andi	r2,r2,255
  211310:	1085883a 	add	r2,r2,r2
  211314:	1085883a 	add	r2,r2,r2
  211318:	10800084 	addi	r2,r2,2
  21131c:	10800204 	addi	r2,r2,8
  211320:	1885883a 	add	r2,r3,r2
  211324:	d8000215 	stw	zero,8(sp)
  211328:	d8800115 	stw	r2,4(sp)
  21132c:	00800084 	movi	r2,2
  211330:	d8800015 	stw	r2,0(sp)
  211334:	200f883a 	mov	r7,r4
  211338:	01800084 	movi	r6,2
  21133c:	01400044 	movi	r5,1
  211340:	010008b4 	movhi	r4,34
  211344:	21045004 	addi	r4,r4,4416
  211348:	0214aec0 	call	214aec <alt_avalon_spi_command>
  21134c:	e0bff015 	stw	r2,-64(fp)
  211350:	d0a01c03 	ldbu	r2,-32656(gp)
  211354:	10800044 	addi	r2,r2,1
  211358:	d0a01c05 	stb	r2,-32656(gp)
  21135c:	d0a00117 	ldw	r2,-32764(gp)
  211360:	10800083 	ldbu	r2,2(r2)
  211364:	d0e01c03 	ldbu	r3,-32656(gp)
  211368:	10803fcc 	andi	r2,r2,255
  21136c:	18c03fcc 	andi	r3,r3,255
  211370:	18bfcd36 	bltu	r3,r2,2112a8 <_gp+0xffff1e28>
  211374:	d0a00017 	ldw	r2,-32768(gp)
  211378:	00c00044 	movi	r3,1
  21137c:	10c00045 	stb	r3,1(r2)
  211380:	00051f06 	br	212800 <main+0x2028>
  211384:	d0a00117 	ldw	r2,-32764(gp)
  211388:	10800243 	ldbu	r2,9(r2)
  21138c:	10803fcc 	andi	r2,r2,255
  211390:	1006963a 	slli	r3,r2,24
  211394:	d0a00117 	ldw	r2,-32764(gp)
  211398:	10800283 	ldbu	r2,10(r2)
  21139c:	10803fcc 	andi	r2,r2,255
  2113a0:	1004943a 	slli	r2,r2,16
  2113a4:	1886b03a 	or	r3,r3,r2
  2113a8:	d0a00117 	ldw	r2,-32764(gp)
  2113ac:	108002c3 	ldbu	r2,11(r2)
  2113b0:	10803fcc 	andi	r2,r2,255
  2113b4:	1004923a 	slli	r2,r2,8
  2113b8:	1886b03a 	or	r3,r3,r2
  2113bc:	d0a00117 	ldw	r2,-32764(gp)
  2113c0:	10800303 	ldbu	r2,12(r2)
  2113c4:	10803fcc 	andi	r2,r2,255
  2113c8:	1884b03a 	or	r2,r3,r2
  2113cc:	d0a02315 	stw	r2,-32628(gp)
  2113d0:	d0a00117 	ldw	r2,-32764(gp)
  2113d4:	10800343 	ldbu	r2,13(r2)
  2113d8:	d0a01c45 	stb	r2,-32655(gp)
  2113dc:	d0a00117 	ldw	r2,-32764(gp)
  2113e0:	10800483 	ldbu	r2,18(r2)
  2113e4:	10803fcc 	andi	r2,r2,255
  2113e8:	1000641e 	bne	r2,zero,21157c <main+0xda4>
  2113ec:	d0a00117 	ldw	r2,-32764(gp)
  2113f0:	108004c3 	ldbu	r2,19(r2)
  2113f4:	10803fcc 	andi	r2,r2,255
  2113f8:	108000d8 	cmpnei	r2,r2,3
  2113fc:	10005f1e 	bne	r2,zero,21157c <main+0xda4>
  211400:	d0a00117 	ldw	r2,-32764(gp)
  211404:	10800203 	ldbu	r2,8(r2)
  211408:	10803fcc 	andi	r2,r2,255
  21140c:	1000571e 	bne	r2,zero,21156c <main+0xd94>
  211410:	000d883a 	mov	r6,zero
  211414:	01401404 	movi	r5,80
  211418:	010008b4 	movhi	r4,34
  21141c:	21046804 	addi	r4,r4,4512
  211420:	02101100 	call	210110 <I2C_start>
  211424:	d0a02445 	stb	r2,-32623(gp)
  211428:	d0a00117 	ldw	r2,-32764(gp)
  21142c:	10800403 	ldbu	r2,16(r2)
  211430:	10803fcc 	andi	r2,r2,255
  211434:	000d883a 	mov	r6,zero
  211438:	100b883a 	mov	r5,r2
  21143c:	010008b4 	movhi	r4,34
  211440:	21046804 	addi	r4,r4,4512
  211444:	02102280 	call	210228 <I2C_write>
  211448:	1007883a 	mov	r3,r2
  21144c:	d0a02443 	ldbu	r2,-32623(gp)
  211450:	1885883a 	add	r2,r3,r2
  211454:	d0a02445 	stb	r2,-32623(gp)
  211458:	d0a00117 	ldw	r2,-32764(gp)
  21145c:	10800443 	ldbu	r2,17(r2)
  211460:	10803fcc 	andi	r2,r2,255
  211464:	000d883a 	mov	r6,zero
  211468:	100b883a 	mov	r5,r2
  21146c:	010008b4 	movhi	r4,34
  211470:	21046804 	addi	r4,r4,4512
  211474:	02102280 	call	210228 <I2C_write>
  211478:	1007883a 	mov	r3,r2
  21147c:	d0a02443 	ldbu	r2,-32623(gp)
  211480:	1885883a 	add	r2,r3,r2
  211484:	d0a02445 	stb	r2,-32623(gp)
  211488:	e03fe915 	stw	zero,-92(fp)
  21148c:	00001506 	br	2114e4 <main+0xd0c>
  211490:	d0e00117 	ldw	r3,-32764(gp)
  211494:	e0bfe917 	ldw	r2,-92(fp)
  211498:	10800604 	addi	r2,r2,24
  21149c:	1885883a 	add	r2,r3,r2
  2114a0:	10800204 	addi	r2,r2,8
  2114a4:	10800003 	ldbu	r2,0(r2)
  2114a8:	10803fcc 	andi	r2,r2,255
  2114ac:	000d883a 	mov	r6,zero
  2114b0:	100b883a 	mov	r5,r2
  2114b4:	010008b4 	movhi	r4,34
  2114b8:	21046804 	addi	r4,r4,4512
  2114bc:	02102280 	call	210228 <I2C_write>
  2114c0:	1007883a 	mov	r3,r2
  2114c4:	d0a02443 	ldbu	r2,-32623(gp)
  2114c8:	1885883a 	add	r2,r3,r2
  2114cc:	d0a02445 	stb	r2,-32623(gp)
  2114d0:	0104e204 	movi	r4,5000
  2114d4:	02148c00 	call	2148c0 <usleep>
  2114d8:	e0bfe917 	ldw	r2,-92(fp)
  2114dc:	10800044 	addi	r2,r2,1
  2114e0:	e0bfe915 	stw	r2,-92(fp)
  2114e4:	d0a01c43 	ldbu	r2,-32655(gp)
  2114e8:	10803fcc 	andi	r2,r2,255
  2114ec:	10bfffc4 	addi	r2,r2,-1
  2114f0:	e0ffe917 	ldw	r3,-92(fp)
  2114f4:	18bfe616 	blt	r3,r2,211490 <_gp+0xffff2010>
  2114f8:	d0e00117 	ldw	r3,-32764(gp)
  2114fc:	e0bfe917 	ldw	r2,-92(fp)
  211500:	10800604 	addi	r2,r2,24
  211504:	1885883a 	add	r2,r3,r2
  211508:	10800204 	addi	r2,r2,8
  21150c:	10800003 	ldbu	r2,0(r2)
  211510:	10803fcc 	andi	r2,r2,255
  211514:	01800044 	movi	r6,1
  211518:	100b883a 	mov	r5,r2
  21151c:	010008b4 	movhi	r4,34
  211520:	21046804 	addi	r4,r4,4512
  211524:	02102280 	call	210228 <I2C_write>
  211528:	1007883a 	mov	r3,r2
  21152c:	d0a02443 	ldbu	r2,-32623(gp)
  211530:	1885883a 	add	r2,r3,r2
  211534:	d0a02445 	stb	r2,-32623(gp)
  211538:	0104e204 	movi	r4,5000
  21153c:	02148c00 	call	2148c0 <usleep>
  211540:	d0a02443 	ldbu	r2,-32623(gp)
  211544:	10803fcc 	andi	r2,r2,255
  211548:	10000426 	beq	r2,zero,21155c <main+0xd84>
  21154c:	d0a00017 	ldw	r2,-32768(gp)
  211550:	00c00144 	movi	r3,5
  211554:	10c00045 	stb	r3,1(r2)
  211558:	0000b906 	br	211840 <main+0x1068>
  21155c:	d0a00017 	ldw	r2,-32768(gp)
  211560:	00c00044 	movi	r3,1
  211564:	10c00045 	stb	r3,1(r2)
  211568:	0000b506 	br	211840 <main+0x1068>
  21156c:	d0a00017 	ldw	r2,-32768(gp)
  211570:	00c00144 	movi	r3,5
  211574:	10c00045 	stb	r3,1(r2)
  211578:	0000b106 	br	211840 <main+0x1068>
  21157c:	d0a00117 	ldw	r2,-32764(gp)
  211580:	10800483 	ldbu	r2,18(r2)
  211584:	10803fcc 	andi	r2,r2,255
  211588:	1000a91e 	bne	r2,zero,211830 <main+0x1058>
  21158c:	d0a00117 	ldw	r2,-32764(gp)
  211590:	108004c3 	ldbu	r2,19(r2)
  211594:	10803fcc 	andi	r2,r2,255
  211598:	10800058 	cmpnei	r2,r2,1
  21159c:	1000a41e 	bne	r2,zero,211830 <main+0x1058>
  2115a0:	d0a00117 	ldw	r2,-32764(gp)
  2115a4:	10800203 	ldbu	r2,8(r2)
  2115a8:	10803fcc 	andi	r2,r2,255
  2115ac:	108000a0 	cmpeqi	r2,r2,2
  2115b0:	10009a26 	beq	r2,zero,21181c <main+0x1044>
  2115b4:	d0a02317 	ldw	r2,-32628(gp)
  2115b8:	1000041e 	bne	r2,zero,2115cc <main+0xdf4>
  2115bc:	d0201315 	stw	zero,-32692(gp)
  2115c0:	d0201415 	stw	zero,-32688(gp)
  2115c4:	d0201615 	stw	zero,-32680(gp)
  2115c8:	d0202515 	stw	zero,-32620(gp)
  2115cc:	d0a01417 	ldw	r2,-32688(gp)
  2115d0:	00c04004 	movi	r3,256
  2115d4:	1885c83a 	sub	r2,r3,r2
  2115d8:	d0a01515 	stw	r2,-32684(gp)
  2115dc:	d0a01517 	ldw	r2,-32684(gp)
  2115e0:	0080280e 	bge	zero,r2,211684 <main+0xeac>
  2115e4:	d0a01c43 	ldbu	r2,-32655(gp)
  2115e8:	10c03fcc 	andi	r3,r2,255
  2115ec:	d0a01517 	ldw	r2,-32684(gp)
  2115f0:	1880040e 	bge	r3,r2,211604 <main+0xe2c>
  2115f4:	d0a01c43 	ldbu	r2,-32655(gp)
  2115f8:	10803fcc 	andi	r2,r2,255
  2115fc:	d0a01615 	stw	r2,-32680(gp)
  211600:	00000206 	br	21160c <main+0xe34>
  211604:	d0a01517 	ldw	r2,-32684(gp)
  211608:	d0a01615 	stw	r2,-32680(gp)
  21160c:	d0e01417 	ldw	r3,-32688(gp)
  211610:	00800874 	movhi	r2,33
  211614:	109d5b04 	addi	r2,r2,30060
  211618:	1887883a 	add	r3,r3,r2
  21161c:	d0a00117 	ldw	r2,-32764(gp)
  211620:	10800804 	addi	r2,r2,32
  211624:	d1201617 	ldw	r4,-32680(gp)
  211628:	200d883a 	mov	r6,r4
  21162c:	100b883a 	mov	r5,r2
  211630:	1809883a 	mov	r4,r3
  211634:	02140000 	call	214000 <memcpy>
  211638:	d0e01417 	ldw	r3,-32688(gp)
  21163c:	d0a01617 	ldw	r2,-32680(gp)
  211640:	1885883a 	add	r2,r3,r2
  211644:	d0a01415 	stw	r2,-32688(gp)
  211648:	d0a01417 	ldw	r2,-32688(gp)
  21164c:	00c04004 	movi	r3,256
  211650:	1885c83a 	sub	r2,r3,r2
  211654:	d0a01515 	stw	r2,-32684(gp)
  211658:	d0a01c43 	ldbu	r2,-32655(gp)
  21165c:	10803fcc 	andi	r2,r2,255
  211660:	1000041e 	bne	r2,zero,211674 <main+0xe9c>
  211664:	d0a01417 	ldw	r2,-32688(gp)
  211668:	0080020e 	bge	zero,r2,211674 <main+0xe9c>
  21166c:	00804004 	movi	r2,256
  211670:	d0a01415 	stw	r2,-32688(gp)
  211674:	d0a01417 	ldw	r2,-32688(gp)
  211678:	00c04004 	movi	r3,256
  21167c:	1885c83a 	sub	r2,r3,r2
  211680:	d0a01515 	stw	r2,-32684(gp)
  211684:	d0a01417 	ldw	r2,-32688(gp)
  211688:	10804010 	cmplti	r2,r2,256
  21168c:	10002f1e 	bne	r2,zero,21174c <main+0xf74>
  211690:	d0a01317 	ldw	r2,-32692(gp)
  211694:	10803fcc 	andi	r2,r2,255
  211698:	1000101e 	bne	r2,zero,2116dc <main+0xf04>
  21169c:	d0a01317 	ldw	r2,-32692(gp)
  2116a0:	1000010e 	bge	r2,zero,2116a8 <main+0xed0>
  2116a4:	10803fc4 	addi	r2,r2,255
  2116a8:	1005d23a 	srai	r2,r2,8
  2116ac:	10803fcc 	andi	r2,r2,255
  2116b0:	100f883a 	mov	r7,r2
  2116b4:	01800044 	movi	r6,1
  2116b8:	000b883a 	mov	r5,zero
  2116bc:	010008b4 	movhi	r4,34
  2116c0:	21044004 	addi	r4,r4,4352
  2116c4:	0212ca80 	call	212ca8 <FlashSpiEraseSector>
  2116c8:	10803fcc 	andi	r2,r2,255
  2116cc:	10000326 	beq	r2,zero,2116dc <main+0xf04>
  2116d0:	d0a02443 	ldbu	r2,-32623(gp)
  2116d4:	10800044 	addi	r2,r2,1
  2116d8:	d0a02445 	stb	r2,-32623(gp)
  2116dc:	d0a02443 	ldbu	r2,-32623(gp)
  2116e0:	10803fcc 	andi	r2,r2,255
  2116e4:	1000111e 	bne	r2,zero,21172c <main+0xf54>
  2116e8:	d0a01317 	ldw	r2,-32692(gp)
  2116ec:	1007883a 	mov	r3,r2
  2116f0:	d8000115 	stw	zero,4(sp)
  2116f4:	00800874 	movhi	r2,33
  2116f8:	109d5b04 	addi	r2,r2,30060
  2116fc:	d8800015 	stw	r2,0(sp)
  211700:	01c04004 	movi	r7,256
  211704:	180d883a 	mov	r6,r3
  211708:	000b883a 	mov	r5,zero
  21170c:	010008b4 	movhi	r4,34
  211710:	21044004 	addi	r4,r4,4352
  211714:	0212a140 	call	212a14 <FlashSpiTransfer>
  211718:	10803fcc 	andi	r2,r2,255
  21171c:	10000326 	beq	r2,zero,21172c <main+0xf54>
  211720:	d0a02443 	ldbu	r2,-32623(gp)
  211724:	10800044 	addi	r2,r2,1
  211728:	d0a02445 	stb	r2,-32623(gp)
  21172c:	d0a01317 	ldw	r2,-32692(gp)
  211730:	10800044 	addi	r2,r2,1
  211734:	d0a01315 	stw	r2,-32692(gp)
  211738:	d0201415 	stw	zero,-32688(gp)
  21173c:	d0a01417 	ldw	r2,-32688(gp)
  211740:	00c04004 	movi	r3,256
  211744:	1885c83a 	sub	r2,r3,r2
  211748:	d0a01515 	stw	r2,-32684(gp)
  21174c:	d0a01c43 	ldbu	r2,-32655(gp)
  211750:	10803fcc 	andi	r2,r2,255
  211754:	d0e01617 	ldw	r3,-32680(gp)
  211758:	1880190e 	bge	r3,r2,2117c0 <main+0xfe8>
  21175c:	d0a01c43 	ldbu	r2,-32655(gp)
  211760:	10c03fcc 	andi	r3,r2,255
  211764:	d0a01617 	ldw	r2,-32680(gp)
  211768:	1885c83a 	sub	r2,r3,r2
  21176c:	d0a01615 	stw	r2,-32680(gp)
  211770:	d0e01417 	ldw	r3,-32688(gp)
  211774:	00800874 	movhi	r2,33
  211778:	109d5b04 	addi	r2,r2,30060
  21177c:	1887883a 	add	r3,r3,r2
  211780:	d0a00117 	ldw	r2,-32764(gp)
  211784:	10800804 	addi	r2,r2,32
  211788:	d1201c43 	ldbu	r4,-32655(gp)
  21178c:	21003fcc 	andi	r4,r4,255
  211790:	200d883a 	mov	r6,r4
  211794:	100b883a 	mov	r5,r2
  211798:	1809883a 	mov	r4,r3
  21179c:	02140000 	call	214000 <memcpy>
  2117a0:	d0e01417 	ldw	r3,-32688(gp)
  2117a4:	d0a01617 	ldw	r2,-32680(gp)
  2117a8:	1885883a 	add	r2,r3,r2
  2117ac:	d0a01415 	stw	r2,-32688(gp)
  2117b0:	d0a01417 	ldw	r2,-32688(gp)
  2117b4:	00c04004 	movi	r3,256
  2117b8:	1885c83a 	sub	r2,r3,r2
  2117bc:	d0a01515 	stw	r2,-32684(gp)
  2117c0:	d0a01c43 	ldbu	r2,-32655(gp)
  2117c4:	10c03fcc 	andi	r3,r2,255
  2117c8:	d0a02517 	ldw	r2,-32620(gp)
  2117cc:	1885883a 	add	r2,r3,r2
  2117d0:	d0a02515 	stw	r2,-32620(gp)
  2117d4:	d0a02517 	ldw	r2,-32620(gp)
  2117d8:	00c04034 	movhi	r3,256
  2117dc:	18800b36 	bltu	r3,r2,21180c <main+0x1034>
  2117e0:	d0a02443 	ldbu	r2,-32623(gp)
  2117e4:	10803fcc 	andi	r2,r2,255
  2117e8:	10000426 	beq	r2,zero,2117fc <main+0x1024>
  2117ec:	d0a00017 	ldw	r2,-32768(gp)
  2117f0:	00c00144 	movi	r3,5
  2117f4:	10c00045 	stb	r3,1(r2)
  2117f8:	00000c06 	br	21182c <main+0x1054>
  2117fc:	d0a00017 	ldw	r2,-32768(gp)
  211800:	00c00044 	movi	r3,1
  211804:	10c00045 	stb	r3,1(r2)
  211808:	00000806 	br	21182c <main+0x1054>
  21180c:	d0a00017 	ldw	r2,-32768(gp)
  211810:	00c00144 	movi	r3,5
  211814:	10c00045 	stb	r3,1(r2)
  211818:	00000406 	br	21182c <main+0x1054>
  21181c:	d0a00017 	ldw	r2,-32768(gp)
  211820:	00c00144 	movi	r3,5
  211824:	10c00045 	stb	r3,1(r2)
  211828:	0001883a 	nop
  21182c:	00000406 	br	211840 <main+0x1068>
  211830:	d0a00017 	ldw	r2,-32768(gp)
  211834:	00c00144 	movi	r3,5
  211838:	10c00045 	stb	r3,1(r2)
  21183c:	0003f006 	br	212800 <main+0x2028>
  211840:	0003ef06 	br	212800 <main+0x2028>
  211844:	d0a00117 	ldw	r2,-32764(gp)
  211848:	10800243 	ldbu	r2,9(r2)
  21184c:	10803fcc 	andi	r2,r2,255
  211850:	1006963a 	slli	r3,r2,24
  211854:	d0a00117 	ldw	r2,-32764(gp)
  211858:	10800283 	ldbu	r2,10(r2)
  21185c:	10803fcc 	andi	r2,r2,255
  211860:	1004943a 	slli	r2,r2,16
  211864:	1886b03a 	or	r3,r3,r2
  211868:	d0a00117 	ldw	r2,-32764(gp)
  21186c:	108002c3 	ldbu	r2,11(r2)
  211870:	10803fcc 	andi	r2,r2,255
  211874:	1004923a 	slli	r2,r2,8
  211878:	1886b03a 	or	r3,r3,r2
  21187c:	d0a00117 	ldw	r2,-32764(gp)
  211880:	10800303 	ldbu	r2,12(r2)
  211884:	10803fcc 	andi	r2,r2,255
  211888:	1884b03a 	or	r2,r3,r2
  21188c:	d0a02315 	stw	r2,-32628(gp)
  211890:	d0a00117 	ldw	r2,-32764(gp)
  211894:	10800343 	ldbu	r2,13(r2)
  211898:	d0a01c45 	stb	r2,-32655(gp)
  21189c:	d0a00117 	ldw	r2,-32764(gp)
  2118a0:	10800483 	ldbu	r2,18(r2)
  2118a4:	10803fcc 	andi	r2,r2,255
  2118a8:	10005f1e 	bne	r2,zero,211a28 <main+0x1250>
  2118ac:	d0a00117 	ldw	r2,-32764(gp)
  2118b0:	108004c3 	ldbu	r2,19(r2)
  2118b4:	10803fcc 	andi	r2,r2,255
  2118b8:	108000d8 	cmpnei	r2,r2,3
  2118bc:	10005a1e 	bne	r2,zero,211a28 <main+0x1250>
  2118c0:	d0a00117 	ldw	r2,-32764(gp)
  2118c4:	10800203 	ldbu	r2,8(r2)
  2118c8:	10803fcc 	andi	r2,r2,255
  2118cc:	1000521e 	bne	r2,zero,211a18 <main+0x1240>
  2118d0:	000d883a 	mov	r6,zero
  2118d4:	01401404 	movi	r5,80
  2118d8:	010008b4 	movhi	r4,34
  2118dc:	21046804 	addi	r4,r4,4512
  2118e0:	02101100 	call	210110 <I2C_start>
  2118e4:	d0a02445 	stb	r2,-32623(gp)
  2118e8:	d0a00117 	ldw	r2,-32764(gp)
  2118ec:	10800403 	ldbu	r2,16(r2)
  2118f0:	10803fcc 	andi	r2,r2,255
  2118f4:	000d883a 	mov	r6,zero
  2118f8:	100b883a 	mov	r5,r2
  2118fc:	010008b4 	movhi	r4,34
  211900:	21046804 	addi	r4,r4,4512
  211904:	02102280 	call	210228 <I2C_write>
  211908:	1007883a 	mov	r3,r2
  21190c:	d0a02443 	ldbu	r2,-32623(gp)
  211910:	1885883a 	add	r2,r3,r2
  211914:	d0a02445 	stb	r2,-32623(gp)
  211918:	d0a00117 	ldw	r2,-32764(gp)
  21191c:	10800443 	ldbu	r2,17(r2)
  211920:	10803fcc 	andi	r2,r2,255
  211924:	000d883a 	mov	r6,zero
  211928:	100b883a 	mov	r5,r2
  21192c:	010008b4 	movhi	r4,34
  211930:	21046804 	addi	r4,r4,4512
  211934:	02102280 	call	210228 <I2C_write>
  211938:	1007883a 	mov	r3,r2
  21193c:	d0a02443 	ldbu	r2,-32623(gp)
  211940:	1885883a 	add	r2,r3,r2
  211944:	d0a02445 	stb	r2,-32623(gp)
  211948:	01800044 	movi	r6,1
  21194c:	01401404 	movi	r5,80
  211950:	010008b4 	movhi	r4,34
  211954:	21046804 	addi	r4,r4,4512
  211958:	02101100 	call	210110 <I2C_start>
  21195c:	1007883a 	mov	r3,r2
  211960:	d0a02443 	ldbu	r2,-32623(gp)
  211964:	1885883a 	add	r2,r3,r2
  211968:	d0a02445 	stb	r2,-32623(gp)
  21196c:	e03fe915 	stw	zero,-92(fp)
  211970:	00000e06 	br	2119ac <main+0x11d4>
  211974:	d4600017 	ldw	r17,-32768(gp)
  211978:	e0bfe917 	ldw	r2,-92(fp)
  21197c:	14000604 	addi	r16,r2,24
  211980:	000b883a 	mov	r5,zero
  211984:	010008b4 	movhi	r4,34
  211988:	21046804 	addi	r4,r4,4512
  21198c:	02101ac0 	call	2101ac <I2C_read>
  211990:	1007883a 	mov	r3,r2
  211994:	8c05883a 	add	r2,r17,r16
  211998:	10800204 	addi	r2,r2,8
  21199c:	10c00005 	stb	r3,0(r2)
  2119a0:	e0bfe917 	ldw	r2,-92(fp)
  2119a4:	10800044 	addi	r2,r2,1
  2119a8:	e0bfe915 	stw	r2,-92(fp)
  2119ac:	d0a01c43 	ldbu	r2,-32655(gp)
  2119b0:	10803fcc 	andi	r2,r2,255
  2119b4:	10bfffc4 	addi	r2,r2,-1
  2119b8:	e0ffe917 	ldw	r3,-92(fp)
  2119bc:	18bfed16 	blt	r3,r2,211974 <_gp+0xffff24f4>
  2119c0:	d4600017 	ldw	r17,-32768(gp)
  2119c4:	e0bfe917 	ldw	r2,-92(fp)
  2119c8:	14000604 	addi	r16,r2,24
  2119cc:	01400044 	movi	r5,1
  2119d0:	010008b4 	movhi	r4,34
  2119d4:	21046804 	addi	r4,r4,4512
  2119d8:	02101ac0 	call	2101ac <I2C_read>
  2119dc:	1007883a 	mov	r3,r2
  2119e0:	8c05883a 	add	r2,r17,r16
  2119e4:	10800204 	addi	r2,r2,8
  2119e8:	10c00005 	stb	r3,0(r2)
  2119ec:	d0a02443 	ldbu	r2,-32623(gp)
  2119f0:	10803fcc 	andi	r2,r2,255
  2119f4:	10000426 	beq	r2,zero,211a08 <main+0x1230>
  2119f8:	d0a00017 	ldw	r2,-32768(gp)
  2119fc:	00c00144 	movi	r3,5
  211a00:	10c00045 	stb	r3,1(r2)
  211a04:	00005d06 	br	211b7c <main+0x13a4>
  211a08:	d0a00017 	ldw	r2,-32768(gp)
  211a0c:	00c00044 	movi	r3,1
  211a10:	10c00045 	stb	r3,1(r2)
  211a14:	00005906 	br	211b7c <main+0x13a4>
  211a18:	d0a00017 	ldw	r2,-32768(gp)
  211a1c:	00c00144 	movi	r3,5
  211a20:	10c00045 	stb	r3,1(r2)
  211a24:	00005506 	br	211b7c <main+0x13a4>
  211a28:	d0a00117 	ldw	r2,-32764(gp)
  211a2c:	10800483 	ldbu	r2,18(r2)
  211a30:	10803fcc 	andi	r2,r2,255
  211a34:	10004d1e 	bne	r2,zero,211b6c <main+0x1394>
  211a38:	d0a00117 	ldw	r2,-32764(gp)
  211a3c:	108004c3 	ldbu	r2,19(r2)
  211a40:	10803fcc 	andi	r2,r2,255
  211a44:	10800058 	cmpnei	r2,r2,1
  211a48:	1000481e 	bne	r2,zero,211b6c <main+0x1394>
  211a4c:	d0a00117 	ldw	r2,-32764(gp)
  211a50:	10800383 	ldbu	r2,14(r2)
  211a54:	10803fcc 	andi	r2,r2,255
  211a58:	1004963a 	slli	r2,r2,24
  211a5c:	d0a01315 	stw	r2,-32692(gp)
  211a60:	d0a00117 	ldw	r2,-32764(gp)
  211a64:	108003c3 	ldbu	r2,15(r2)
  211a68:	10803fcc 	andi	r2,r2,255
  211a6c:	1006943a 	slli	r3,r2,16
  211a70:	d0a01317 	ldw	r2,-32692(gp)
  211a74:	1884b03a 	or	r2,r3,r2
  211a78:	d0a01315 	stw	r2,-32692(gp)
  211a7c:	d0a00117 	ldw	r2,-32764(gp)
  211a80:	10800403 	ldbu	r2,16(r2)
  211a84:	10803fcc 	andi	r2,r2,255
  211a88:	1006923a 	slli	r3,r2,8
  211a8c:	d0a01317 	ldw	r2,-32692(gp)
  211a90:	1884b03a 	or	r2,r3,r2
  211a94:	d0a01315 	stw	r2,-32692(gp)
  211a98:	d0a00117 	ldw	r2,-32764(gp)
  211a9c:	10800443 	ldbu	r2,17(r2)
  211aa0:	10c03fcc 	andi	r3,r2,255
  211aa4:	d0a01317 	ldw	r2,-32692(gp)
  211aa8:	1884b03a 	or	r2,r3,r2
  211aac:	d0a01315 	stw	r2,-32692(gp)
  211ab0:	d0a01317 	ldw	r2,-32692(gp)
  211ab4:	1007883a 	mov	r3,r2
  211ab8:	00800874 	movhi	r2,33
  211abc:	109d5b04 	addi	r2,r2,30060
  211ac0:	d8800015 	stw	r2,0(sp)
  211ac4:	01c04004 	movi	r7,256
  211ac8:	180d883a 	mov	r6,r3
  211acc:	000b883a 	mov	r5,zero
  211ad0:	010008b4 	movhi	r4,34
  211ad4:	21044004 	addi	r4,r4,4352
  211ad8:	02129340 	call	212934 <FlashSpiRead>
  211adc:	10803fcc 	andi	r2,r2,255
  211ae0:	10000326 	beq	r2,zero,211af0 <main+0x1318>
  211ae4:	d0a02443 	ldbu	r2,-32623(gp)
  211ae8:	10800044 	addi	r2,r2,1
  211aec:	d0a02445 	stb	r2,-32623(gp)
  211af0:	e03fe915 	stw	zero,-92(fp)
  211af4:	00000e06 	br	211b30 <main+0x1358>
  211af8:	d1600017 	ldw	r5,-32768(gp)
  211afc:	e0bfe917 	ldw	r2,-92(fp)
  211b00:	11000604 	addi	r4,r2,24
  211b04:	00800874 	movhi	r2,33
  211b08:	109d5b04 	addi	r2,r2,30060
  211b0c:	e0ffe917 	ldw	r3,-92(fp)
  211b10:	10c5883a 	add	r2,r2,r3
  211b14:	10c00003 	ldbu	r3,0(r2)
  211b18:	2905883a 	add	r2,r5,r4
  211b1c:	10800204 	addi	r2,r2,8
  211b20:	10c00005 	stb	r3,0(r2)
  211b24:	e0bfe917 	ldw	r2,-92(fp)
  211b28:	10800044 	addi	r2,r2,1
  211b2c:	e0bfe915 	stw	r2,-92(fp)
  211b30:	d0a01c43 	ldbu	r2,-32655(gp)
  211b34:	10803fcc 	andi	r2,r2,255
  211b38:	e0ffe917 	ldw	r3,-92(fp)
  211b3c:	18bfee16 	blt	r3,r2,211af8 <_gp+0xffff2678>
  211b40:	d0a02443 	ldbu	r2,-32623(gp)
  211b44:	10803fcc 	andi	r2,r2,255
  211b48:	10000426 	beq	r2,zero,211b5c <main+0x1384>
  211b4c:	d0a00017 	ldw	r2,-32768(gp)
  211b50:	00c00144 	movi	r3,5
  211b54:	10c00045 	stb	r3,1(r2)
  211b58:	00000806 	br	211b7c <main+0x13a4>
  211b5c:	d0a00017 	ldw	r2,-32768(gp)
  211b60:	00c00044 	movi	r3,1
  211b64:	10c00045 	stb	r3,1(r2)
  211b68:	00000406 	br	211b7c <main+0x13a4>
  211b6c:	d0a00017 	ldw	r2,-32768(gp)
  211b70:	00c00144 	movi	r3,5
  211b74:	10c00045 	stb	r3,1(r2)
  211b78:	00032106 	br	212800 <main+0x2028>
  211b7c:	00032006 	br	212800 <main+0x2028>
  211b80:	d0201c05 	stb	zero,-32656(gp)
  211b84:	0000a406 	br	211e18 <main+0x1640>
  211b88:	d0e00117 	ldw	r3,-32764(gp)
  211b8c:	d0a01c03 	ldbu	r2,-32656(gp)
  211b90:	10803fcc 	andi	r2,r2,255
  211b94:	1885883a 	add	r2,r3,r2
  211b98:	10800204 	addi	r2,r2,8
  211b9c:	10800003 	ldbu	r2,0(r2)
  211ba0:	10803fcc 	andi	r2,r2,255
  211ba4:	10000326 	beq	r2,zero,211bb4 <main+0x13dc>
  211ba8:	10800060 	cmpeqi	r2,r2,1
  211bac:	1000301e 	bne	r2,zero,211c70 <main+0x1498>
  211bb0:	00009206 	br	211dfc <main+0x1624>
  211bb4:	d1200017 	ldw	r4,-32768(gp)
  211bb8:	d0a01c03 	ldbu	r2,-32656(gp)
  211bbc:	10803fcc 	andi	r2,r2,255
  211bc0:	1085883a 	add	r2,r2,r2
  211bc4:	1085883a 	add	r2,r2,r2
  211bc8:	100b883a 	mov	r5,r2
  211bcc:	d0e00117 	ldw	r3,-32764(gp)
  211bd0:	d0a01c03 	ldbu	r2,-32656(gp)
  211bd4:	10803fcc 	andi	r2,r2,255
  211bd8:	1885883a 	add	r2,r3,r2
  211bdc:	10800204 	addi	r2,r2,8
  211be0:	10c00003 	ldbu	r3,0(r2)
  211be4:	2145883a 	add	r2,r4,r5
  211be8:	10800204 	addi	r2,r2,8
  211bec:	10c00005 	stb	r3,0(r2)
  211bf0:	d0e00017 	ldw	r3,-32768(gp)
  211bf4:	d0a01c03 	ldbu	r2,-32656(gp)
  211bf8:	10803fcc 	andi	r2,r2,255
  211bfc:	1085883a 	add	r2,r2,r2
  211c00:	1085883a 	add	r2,r2,r2
  211c04:	10800044 	addi	r2,r2,1
  211c08:	1885883a 	add	r2,r3,r2
  211c0c:	10800204 	addi	r2,r2,8
  211c10:	10000005 	stb	zero,0(r2)
  211c14:	d0e00017 	ldw	r3,-32768(gp)
  211c18:	d0a01c03 	ldbu	r2,-32656(gp)
  211c1c:	10803fcc 	andi	r2,r2,255
  211c20:	1085883a 	add	r2,r2,r2
  211c24:	1085883a 	add	r2,r2,r2
  211c28:	10800084 	addi	r2,r2,2
  211c2c:	d120020b 	ldhu	r4,-32760(gp)
  211c30:	213fffcc 	andi	r4,r4,65535
  211c34:	2008d23a 	srli	r4,r4,8
  211c38:	1885883a 	add	r2,r3,r2
  211c3c:	10800204 	addi	r2,r2,8
  211c40:	11000005 	stb	r4,0(r2)
  211c44:	d0e00017 	ldw	r3,-32768(gp)
  211c48:	d0a01c03 	ldbu	r2,-32656(gp)
  211c4c:	10803fcc 	andi	r2,r2,255
  211c50:	1085883a 	add	r2,r2,r2
  211c54:	1085883a 	add	r2,r2,r2
  211c58:	108000c4 	addi	r2,r2,3
  211c5c:	d120020b 	ldhu	r4,-32760(gp)
  211c60:	1885883a 	add	r2,r3,r2
  211c64:	10800204 	addi	r2,r2,8
  211c68:	11000005 	stb	r4,0(r2)
  211c6c:	00006706 	br	211e0c <main+0x1634>
  211c70:	000d883a 	mov	r6,zero
  211c74:	01401204 	movi	r5,72
  211c78:	010008b4 	movhi	r4,34
  211c7c:	21046804 	addi	r4,r4,4512
  211c80:	02101100 	call	210110 <I2C_start>
  211c84:	e0bff015 	stw	r2,-64(fp)
  211c88:	01800044 	movi	r6,1
  211c8c:	000b883a 	mov	r5,zero
  211c90:	010008b4 	movhi	r4,34
  211c94:	21046804 	addi	r4,r4,4512
  211c98:	02102280 	call	210228 <I2C_write>
  211c9c:	e0bff015 	stw	r2,-64(fp)
  211ca0:	01800044 	movi	r6,1
  211ca4:	01401204 	movi	r5,72
  211ca8:	010008b4 	movhi	r4,34
  211cac:	21046804 	addi	r4,r4,4512
  211cb0:	02101100 	call	210110 <I2C_start>
  211cb4:	e0bff015 	stw	r2,-64(fp)
  211cb8:	000b883a 	mov	r5,zero
  211cbc:	010008b4 	movhi	r4,34
  211cc0:	21046804 	addi	r4,r4,4512
  211cc4:	02101ac0 	call	2101ac <I2C_read>
  211cc8:	d0a0028d 	sth	r2,-32758(gp)
  211ccc:	d0a0028b 	ldhu	r2,-32758(gp)
  211cd0:	10bfffcc 	andi	r2,r2,65535
  211cd4:	10a0001c 	xori	r2,r2,32768
  211cd8:	10a00004 	addi	r2,r2,-32768
  211cdc:	1004923a 	slli	r2,r2,8
  211ce0:	d0a0028d 	sth	r2,-32758(gp)
  211ce4:	d0a0028b 	ldhu	r2,-32758(gp)
  211ce8:	10bfffcc 	andi	r2,r2,65535
  211cec:	10a0001c 	xori	r2,r2,32768
  211cf0:	10a00004 	addi	r2,r2,-32768
  211cf4:	1005d23a 	srai	r2,r2,8
  211cf8:	01400284 	movi	r5,10
  211cfc:	1009883a 	mov	r4,r2
  211d00:	02135700 	call	213570 <__mulsi3>
  211d04:	d0a0028d 	sth	r2,-32758(gp)
  211d08:	01400044 	movi	r5,1
  211d0c:	010008b4 	movhi	r4,34
  211d10:	21046804 	addi	r4,r4,4512
  211d14:	02101ac0 	call	2101ac <I2C_read>
  211d18:	e0bff015 	stw	r2,-64(fp)
  211d1c:	e0bff017 	ldw	r2,-64(fp)
  211d20:	1080200c 	andi	r2,r2,128
  211d24:	10000326 	beq	r2,zero,211d34 <main+0x155c>
  211d28:	d0a0028b 	ldhu	r2,-32758(gp)
  211d2c:	10800144 	addi	r2,r2,5
  211d30:	d0a0028d 	sth	r2,-32758(gp)
  211d34:	d1200017 	ldw	r4,-32768(gp)
  211d38:	d0a01c03 	ldbu	r2,-32656(gp)
  211d3c:	10803fcc 	andi	r2,r2,255
  211d40:	1085883a 	add	r2,r2,r2
  211d44:	1085883a 	add	r2,r2,r2
  211d48:	100b883a 	mov	r5,r2
  211d4c:	d0e00117 	ldw	r3,-32764(gp)
  211d50:	d0a01c03 	ldbu	r2,-32656(gp)
  211d54:	10803fcc 	andi	r2,r2,255
  211d58:	1885883a 	add	r2,r3,r2
  211d5c:	10800204 	addi	r2,r2,8
  211d60:	10c00003 	ldbu	r3,0(r2)
  211d64:	2145883a 	add	r2,r4,r5
  211d68:	10800204 	addi	r2,r2,8
  211d6c:	10c00005 	stb	r3,0(r2)
  211d70:	d0e00017 	ldw	r3,-32768(gp)
  211d74:	d0a01c03 	ldbu	r2,-32656(gp)
  211d78:	10803fcc 	andi	r2,r2,255
  211d7c:	1085883a 	add	r2,r2,r2
  211d80:	1085883a 	add	r2,r2,r2
  211d84:	10800044 	addi	r2,r2,1
  211d88:	1885883a 	add	r2,r3,r2
  211d8c:	10800204 	addi	r2,r2,8
  211d90:	00c01404 	movi	r3,80
  211d94:	10c00005 	stb	r3,0(r2)
  211d98:	d0e00017 	ldw	r3,-32768(gp)
  211d9c:	d0a01c03 	ldbu	r2,-32656(gp)
  211da0:	10803fcc 	andi	r2,r2,255
  211da4:	1085883a 	add	r2,r2,r2
  211da8:	1085883a 	add	r2,r2,r2
  211dac:	10800084 	addi	r2,r2,2
  211db0:	d120028b 	ldhu	r4,-32758(gp)
  211db4:	213fffcc 	andi	r4,r4,65535
  211db8:	2120001c 	xori	r4,r4,32768
  211dbc:	21200004 	addi	r4,r4,-32768
  211dc0:	2009d23a 	srai	r4,r4,8
  211dc4:	1885883a 	add	r2,r3,r2
  211dc8:	10800204 	addi	r2,r2,8
  211dcc:	11000005 	stb	r4,0(r2)
  211dd0:	d0e00017 	ldw	r3,-32768(gp)
  211dd4:	d0a01c03 	ldbu	r2,-32656(gp)
  211dd8:	10803fcc 	andi	r2,r2,255
  211ddc:	1085883a 	add	r2,r2,r2
  211de0:	1085883a 	add	r2,r2,r2
  211de4:	108000c4 	addi	r2,r2,3
  211de8:	d120028b 	ldhu	r4,-32758(gp)
  211dec:	1885883a 	add	r2,r3,r2
  211df0:	10800204 	addi	r2,r2,8
  211df4:	11000005 	stb	r4,0(r2)
  211df8:	00000406 	br	211e0c <main+0x1634>
  211dfc:	d0a02443 	ldbu	r2,-32623(gp)
  211e00:	10800044 	addi	r2,r2,1
  211e04:	d0a02445 	stb	r2,-32623(gp)
  211e08:	0001883a 	nop
  211e0c:	d0a01c03 	ldbu	r2,-32656(gp)
  211e10:	10800044 	addi	r2,r2,1
  211e14:	d0a01c05 	stb	r2,-32656(gp)
  211e18:	d0a00117 	ldw	r2,-32764(gp)
  211e1c:	10800083 	ldbu	r2,2(r2)
  211e20:	d0e01c03 	ldbu	r3,-32656(gp)
  211e24:	10803fcc 	andi	r2,r2,255
  211e28:	18c03fcc 	andi	r3,r3,255
  211e2c:	18bf5636 	bltu	r3,r2,211b88 <_gp+0xffff2708>
  211e30:	d0a00017 	ldw	r2,-32768(gp)
  211e34:	00c00044 	movi	r3,1
  211e38:	10c00045 	stb	r3,1(r2)
  211e3c:	00027006 	br	212800 <main+0x2028>
  211e40:	01000104 	movi	r4,4
  211e44:	02102d40 	call	2102d4 <Check_many_blocks>
  211e48:	10803fcc 	andi	r2,r2,255
  211e4c:	10026b1e 	bne	r2,zero,2127fc <main+0x2024>
  211e50:	d0201c05 	stb	zero,-32656(gp)
  211e54:	00004b06 	br	211f84 <main+0x17ac>
  211e58:	d0e00117 	ldw	r3,-32764(gp)
  211e5c:	d0a01c03 	ldbu	r2,-32656(gp)
  211e60:	10803fcc 	andi	r2,r2,255
  211e64:	1085883a 	add	r2,r2,r2
  211e68:	1085883a 	add	r2,r2,r2
  211e6c:	1885883a 	add	r2,r3,r2
  211e70:	10800204 	addi	r2,r2,8
  211e74:	10800003 	ldbu	r2,0(r2)
  211e78:	10803fcc 	andi	r2,r2,255
  211e7c:	10003a1e 	bne	r2,zero,211f68 <main+0x1790>
  211e80:	d0e00117 	ldw	r3,-32764(gp)
  211e84:	d0a01c03 	ldbu	r2,-32656(gp)
  211e88:	10803fcc 	andi	r2,r2,255
  211e8c:	1085883a 	add	r2,r2,r2
  211e90:	1085883a 	add	r2,r2,r2
  211e94:	10800044 	addi	r2,r2,1
  211e98:	1885883a 	add	r2,r3,r2
  211e9c:	10800204 	addi	r2,r2,8
  211ea0:	10800003 	ldbu	r2,0(r2)
  211ea4:	10803fcc 	andi	r2,r2,255
  211ea8:	10002b1e 	bne	r2,zero,211f58 <main+0x1780>
  211eac:	d0e00117 	ldw	r3,-32764(gp)
  211eb0:	d0a01c03 	ldbu	r2,-32656(gp)
  211eb4:	10803fcc 	andi	r2,r2,255
  211eb8:	1085883a 	add	r2,r2,r2
  211ebc:	1085883a 	add	r2,r2,r2
  211ec0:	10800084 	addi	r2,r2,2
  211ec4:	1885883a 	add	r2,r3,r2
  211ec8:	10800204 	addi	r2,r2,8
  211ecc:	10800003 	ldbu	r2,0(r2)
  211ed0:	10803fcc 	andi	r2,r2,255
  211ed4:	10001c1e 	bne	r2,zero,211f48 <main+0x1770>
  211ed8:	d0e00117 	ldw	r3,-32764(gp)
  211edc:	d0a01c03 	ldbu	r2,-32656(gp)
  211ee0:	10803fcc 	andi	r2,r2,255
  211ee4:	1085883a 	add	r2,r2,r2
  211ee8:	1085883a 	add	r2,r2,r2
  211eec:	10800084 	addi	r2,r2,2
  211ef0:	1885883a 	add	r2,r3,r2
  211ef4:	10800204 	addi	r2,r2,8
  211ef8:	10800003 	ldbu	r2,0(r2)
  211efc:	10803fcc 	andi	r2,r2,255
  211f00:	1004923a 	slli	r2,r2,8
  211f04:	1009883a 	mov	r4,r2
  211f08:	d0e00117 	ldw	r3,-32764(gp)
  211f0c:	d0a01c03 	ldbu	r2,-32656(gp)
  211f10:	10803fcc 	andi	r2,r2,255
  211f14:	1085883a 	add	r2,r2,r2
  211f18:	1085883a 	add	r2,r2,r2
  211f1c:	108000c4 	addi	r2,r2,3
  211f20:	1885883a 	add	r2,r3,r2
  211f24:	10800204 	addi	r2,r2,8
  211f28:	10800003 	ldbu	r2,0(r2)
  211f2c:	10803fcc 	andi	r2,r2,255
  211f30:	2085883a 	add	r2,r4,r2
  211f34:	d0a0020d 	sth	r2,-32760(gp)
  211f38:	d1600204 	addi	r5,gp,-32760
  211f3c:	01000044 	movi	r4,1
  211f40:	02107000 	call	210700 <Control_TCXO_DAC>
  211f44:	00000c06 	br	211f78 <main+0x17a0>
  211f48:	d0a02443 	ldbu	r2,-32623(gp)
  211f4c:	10800044 	addi	r2,r2,1
  211f50:	d0a02445 	stb	r2,-32623(gp)
  211f54:	00000806 	br	211f78 <main+0x17a0>
  211f58:	d0a02443 	ldbu	r2,-32623(gp)
  211f5c:	10800044 	addi	r2,r2,1
  211f60:	d0a02445 	stb	r2,-32623(gp)
  211f64:	00000406 	br	211f78 <main+0x17a0>
  211f68:	d0a02443 	ldbu	r2,-32623(gp)
  211f6c:	10800044 	addi	r2,r2,1
  211f70:	d0a02445 	stb	r2,-32623(gp)
  211f74:	0001883a 	nop
  211f78:	d0a01c03 	ldbu	r2,-32656(gp)
  211f7c:	10800044 	addi	r2,r2,1
  211f80:	d0a01c05 	stb	r2,-32656(gp)
  211f84:	d0a00117 	ldw	r2,-32764(gp)
  211f88:	10800083 	ldbu	r2,2(r2)
  211f8c:	d0e01c03 	ldbu	r3,-32656(gp)
  211f90:	10803fcc 	andi	r2,r2,255
  211f94:	18c03fcc 	andi	r3,r3,255
  211f98:	18bfaf36 	bltu	r3,r2,211e58 <_gp+0xffff29d8>
  211f9c:	d0a02443 	ldbu	r2,-32623(gp)
  211fa0:	10803fcc 	andi	r2,r2,255
  211fa4:	10000426 	beq	r2,zero,211fb8 <main+0x17e0>
  211fa8:	d0a00017 	ldw	r2,-32768(gp)
  211fac:	00c00144 	movi	r3,5
  211fb0:	10c00045 	stb	r3,1(r2)
  211fb4:	00021206 	br	212800 <main+0x2028>
  211fb8:	d0a00017 	ldw	r2,-32768(gp)
  211fbc:	00c00044 	movi	r3,1
  211fc0:	10c00045 	stb	r3,1(r2)
  211fc4:	00020e06 	br	212800 <main+0x2028>
  211fc8:	d0a00117 	ldw	r2,-32764(gp)
  211fcc:	10800243 	ldbu	r2,9(r2)
  211fd0:	10803fcc 	andi	r2,r2,255
  211fd4:	1006963a 	slli	r3,r2,24
  211fd8:	d0a00117 	ldw	r2,-32764(gp)
  211fdc:	10800283 	ldbu	r2,10(r2)
  211fe0:	10803fcc 	andi	r2,r2,255
  211fe4:	1004943a 	slli	r2,r2,16
  211fe8:	1886b03a 	or	r3,r3,r2
  211fec:	d0a00117 	ldw	r2,-32764(gp)
  211ff0:	108002c3 	ldbu	r2,11(r2)
  211ff4:	10803fcc 	andi	r2,r2,255
  211ff8:	1004923a 	slli	r2,r2,8
  211ffc:	1886b03a 	or	r3,r3,r2
  212000:	d0a00117 	ldw	r2,-32764(gp)
  212004:	10800303 	ldbu	r2,12(r2)
  212008:	10803fcc 	andi	r2,r2,255
  21200c:	1884b03a 	or	r2,r3,r2
  212010:	d0a02315 	stw	r2,-32628(gp)
  212014:	d0a00117 	ldw	r2,-32764(gp)
  212018:	10800343 	ldbu	r2,13(r2)
  21201c:	d0a01c45 	stb	r2,-32655(gp)
  212020:	d0a00117 	ldw	r2,-32764(gp)
  212024:	10800203 	ldbu	r2,8(r2)
  212028:	10803fcc 	andi	r2,r2,255
  21202c:	10c00060 	cmpeqi	r3,r2,1
  212030:	1800071e 	bne	r3,zero,212050 <main+0x1878>
  212034:	10c000a0 	cmpeqi	r3,r2,2
  212038:	1800e21e 	bne	r3,zero,2123c4 <main+0x1bec>
  21203c:	1000e71e 	bne	r2,zero,2123dc <main+0x1c04>
  212040:	d0a00017 	ldw	r2,-32768(gp)
  212044:	00c00144 	movi	r3,5
  212048:	10c00045 	stb	r3,1(r2)
  21204c:	0000e706 	br	2123ec <main+0x1c14>
  212050:	d0a00117 	ldw	r2,-32764(gp)
  212054:	10800243 	ldbu	r2,9(r2)
  212058:	10803fcc 	andi	r2,r2,255
  21205c:	1006963a 	slli	r3,r2,24
  212060:	d0a00117 	ldw	r2,-32764(gp)
  212064:	10800283 	ldbu	r2,10(r2)
  212068:	10803fcc 	andi	r2,r2,255
  21206c:	1004943a 	slli	r2,r2,16
  212070:	1886b03a 	or	r3,r3,r2
  212074:	d0a00117 	ldw	r2,-32764(gp)
  212078:	108002c3 	ldbu	r2,11(r2)
  21207c:	10803fcc 	andi	r2,r2,255
  212080:	1004923a 	slli	r2,r2,8
  212084:	1886b03a 	or	r3,r3,r2
  212088:	d0a00117 	ldw	r2,-32764(gp)
  21208c:	10800303 	ldbu	r2,12(r2)
  212090:	10803fcc 	andi	r2,r2,255
  212094:	1884b03a 	or	r2,r3,r2
  212098:	d0a02315 	stw	r2,-32628(gp)
  21209c:	d0a00117 	ldw	r2,-32764(gp)
  2120a0:	10800343 	ldbu	r2,13(r2)
  2120a4:	d0a01c45 	stb	r2,-32655(gp)
  2120a8:	d0a02317 	ldw	r2,-32628(gp)
  2120ac:	1000021e 	bne	r2,zero,2120b8 <main+0x18e0>
  2120b0:	00800284 	movi	r2,10
  2120b4:	d0a02105 	stb	r2,-32636(gp)
  2120b8:	d0a01c43 	ldbu	r2,-32655(gp)
  2120bc:	10803fcc 	andi	r2,r2,255
  2120c0:	1000021e 	bne	r2,zero,2120cc <main+0x18f4>
  2120c4:	00800784 	movi	r2,30
  2120c8:	d0a02105 	stb	r2,-32636(gp)
  2120cc:	00800044 	movi	r2,1
  2120d0:	d0a01a05 	stb	r2,-32664(gp)
  2120d4:	0000b706 	br	2123b4 <main+0x1bdc>
  2120d8:	d0a02103 	ldbu	r2,-32636(gp)
  2120dc:	10803fcc 	andi	r2,r2,255
  2120e0:	10c002e0 	cmpeqi	r3,r2,11
  2120e4:	1800201e 	bne	r3,zero,212168 <main+0x1990>
  2120e8:	10c00308 	cmpgei	r3,r2,12
  2120ec:	1800031e 	bne	r3,zero,2120fc <main+0x1924>
  2120f0:	108002a0 	cmpeqi	r2,r2,10
  2120f4:	1000061e 	bne	r2,zero,212110 <main+0x1938>
  2120f8:	0000a906 	br	2123a0 <main+0x1bc8>
  2120fc:	10c00520 	cmpeqi	r3,r2,20
  212100:	1800391e 	bne	r3,zero,2121e8 <main+0x1a10>
  212104:	108007a0 	cmpeqi	r2,r2,30
  212108:	10009b1e 	bne	r2,zero,212378 <main+0x1ba0>
  21210c:	0000a406 	br	2123a0 <main+0x1bc8>
  212110:	00800174 	movhi	r2,5
  212114:	10a80004 	addi	r2,r2,-24576
  212118:	d0a00415 	stw	r2,-32752(gp)
  21211c:	00800274 	movhi	r2,9
  212120:	10afffc4 	addi	r2,r2,-16385
  212124:	d0a00515 	stw	r2,-32748(gp)
  212128:	d0a00417 	ldw	r2,-32752(gp)
  21212c:	d0a01715 	stw	r2,-32676(gp)
  212130:	00fe0034 	movhi	r3,63488
  212134:	18ffffc4 	addi	r3,r3,-1
  212138:	008008b4 	movhi	r2,34
  21213c:	10848904 	addi	r2,r2,4644
  212140:	10c00035 	stwio	r3,0(r2)
  212144:	00fdf834 	movhi	r3,63456
  212148:	18ffffc4 	addi	r3,r3,-1
  21214c:	008008b4 	movhi	r2,34
  212150:	10848904 	addi	r2,r2,4644
  212154:	10c00035 	stwio	r3,0(r2)
  212158:	008002c4 	movi	r2,11
  21215c:	d0a02105 	stb	r2,-32636(gp)
  212160:	00800044 	movi	r2,1
  212164:	d0a01a05 	stb	r2,-32664(gp)
  212168:	008008b4 	movhi	r2,34
  21216c:	10848804 	addi	r2,r2,4640
  212170:	10800037 	ldwio	r2,0(r2)
  212174:	108004cc 	andi	r2,r2,19
  212178:	10800418 	cmpnei	r2,r2,16
  21217c:	1000091e 	bne	r2,zero,2121a4 <main+0x19cc>
  212180:	00fe0034 	movhi	r3,63488
  212184:	18ffffc4 	addi	r3,r3,-1
  212188:	008008b4 	movhi	r2,34
  21218c:	10848904 	addi	r2,r2,4644
  212190:	10c00035 	stwio	r3,0(r2)
  212194:	00800504 	movi	r2,20
  212198:	d0a02105 	stb	r2,-32636(gp)
  21219c:	00800044 	movi	r2,1
  2121a0:	d0a01a05 	stb	r2,-32664(gp)
  2121a4:	008008b4 	movhi	r2,34
  2121a8:	10848804 	addi	r2,r2,4640
  2121ac:	10800037 	ldwio	r2,0(r2)
  2121b0:	108004cc 	andi	r2,r2,19
  2121b4:	10800058 	cmpnei	r2,r2,1
  2121b8:	1000041e 	bne	r2,zero,2121cc <main+0x19f4>
  2121bc:	008002c4 	movi	r2,11
  2121c0:	d0a02105 	stb	r2,-32636(gp)
  2121c4:	00800044 	movi	r2,1
  2121c8:	d0a01a05 	stb	r2,-32664(gp)
  2121cc:	008008b4 	movhi	r2,34
  2121d0:	10848804 	addi	r2,r2,4640
  2121d4:	10800037 	ldwio	r2,0(r2)
  2121d8:	108004cc 	andi	r2,r2,19
  2121dc:	1000751e 	bne	r2,zero,2123b4 <main+0x1bdc>
  2121e0:	d0202105 	stb	zero,-32636(gp)
  2121e4:	00007306 	br	2123b4 <main+0x1bdc>
  2121e8:	00800604 	movi	r2,24
  2121ec:	d0a01815 	stw	r2,-32672(gp)
  2121f0:	00005706 	br	212350 <main+0x1b78>
  2121f4:	d0e00117 	ldw	r3,-32764(gp)
  2121f8:	d0a01817 	ldw	r2,-32672(gp)
  2121fc:	1885883a 	add	r2,r3,r2
  212200:	10800204 	addi	r2,r2,8
  212204:	10800003 	ldbu	r2,0(r2)
  212208:	10803fcc 	andi	r2,r2,255
  21220c:	1005c032 	custom	0,r2,r2,zero
  212210:	10bfc02c 	andhi	r2,r2,65280
  212214:	d0a01915 	stw	r2,-32668(gp)
  212218:	d0e00117 	ldw	r3,-32764(gp)
  21221c:	d0a01817 	ldw	r2,-32672(gp)
  212220:	10800044 	addi	r2,r2,1
  212224:	1885883a 	add	r2,r3,r2
  212228:	10800204 	addi	r2,r2,8
  21222c:	10800003 	ldbu	r2,0(r2)
  212230:	10803fcc 	andi	r2,r2,255
  212234:	1005c032 	custom	0,r2,r2,zero
  212238:	1005d23a 	srai	r2,r2,8
  21223c:	10803fec 	andhi	r2,r2,255
  212240:	1007883a 	mov	r3,r2
  212244:	d0a01917 	ldw	r2,-32668(gp)
  212248:	1884b03a 	or	r2,r3,r2
  21224c:	d0a01915 	stw	r2,-32668(gp)
  212250:	d0e00117 	ldw	r3,-32764(gp)
  212254:	d0a01817 	ldw	r2,-32672(gp)
  212258:	10800084 	addi	r2,r2,2
  21225c:	1885883a 	add	r2,r3,r2
  212260:	10800204 	addi	r2,r2,8
  212264:	10800003 	ldbu	r2,0(r2)
  212268:	10803fcc 	andi	r2,r2,255
  21226c:	1005c032 	custom	0,r2,r2,zero
  212270:	1005d43a 	srai	r2,r2,16
  212274:	10bfc00c 	andi	r2,r2,65280
  212278:	1007883a 	mov	r3,r2
  21227c:	d0a01917 	ldw	r2,-32668(gp)
  212280:	1884b03a 	or	r2,r3,r2
  212284:	d0a01915 	stw	r2,-32668(gp)
  212288:	d0e00117 	ldw	r3,-32764(gp)
  21228c:	d0a01817 	ldw	r2,-32672(gp)
  212290:	108000c4 	addi	r2,r2,3
  212294:	1885883a 	add	r2,r3,r2
  212298:	10800204 	addi	r2,r2,8
  21229c:	10800003 	ldbu	r2,0(r2)
  2122a0:	10803fcc 	andi	r2,r2,255
  2122a4:	1005c032 	custom	0,r2,r2,zero
  2122a8:	1004d63a 	srli	r2,r2,24
  2122ac:	1007883a 	mov	r3,r2
  2122b0:	d0a01917 	ldw	r2,-32668(gp)
  2122b4:	1884b03a 	or	r2,r3,r2
  2122b8:	d0a01915 	stw	r2,-32668(gp)
  2122bc:	d0a01717 	ldw	r2,-32676(gp)
  2122c0:	d0e00517 	ldw	r3,-32748(gp)
  2122c4:	18801c36 	bltu	r3,r2,212338 <main+0x1b60>
  2122c8:	d0e01717 	ldw	r3,-32676(gp)
  2122cc:	00800434 	movhi	r2,16
  2122d0:	1885883a 	add	r2,r3,r2
  2122d4:	d0e01917 	ldw	r3,-32668(gp)
  2122d8:	10c00035 	stwio	r3,0(r2)
  2122dc:	d0a01717 	ldw	r2,-32676(gp)
  2122e0:	10800104 	addi	r2,r2,4
  2122e4:	d0a01715 	stw	r2,-32676(gp)
  2122e8:	0001883a 	nop
  2122ec:	008008b4 	movhi	r2,34
  2122f0:	10848804 	addi	r2,r2,4640
  2122f4:	10800037 	ldwio	r2,0(r2)
  2122f8:	108002cc 	andi	r2,r2,11
  2122fc:	108000a0 	cmpeqi	r2,r2,2
  212300:	103ffa1e 	bne	r2,zero,2122ec <_gp+0xffff2e6c>
  212304:	008008b4 	movhi	r2,34
  212308:	10848804 	addi	r2,r2,4640
  21230c:	10800037 	ldwio	r2,0(r2)
  212310:	108002cc 	andi	r2,r2,11
  212314:	1000041e 	bne	r2,zero,212328 <main+0x1b50>
  212318:	d0202105 	stb	zero,-32636(gp)
  21231c:	008002f4 	movhi	r2,11
  212320:	10ab9804 	addi	r2,r2,-20896
  212324:	d0a01715 	stw	r2,-32676(gp)
  212328:	008008b4 	movhi	r2,34
  21232c:	10848804 	addi	r2,r2,4640
  212330:	10800037 	ldwio	r2,0(r2)
  212334:	00000306 	br	212344 <main+0x1b6c>
  212338:	d0a00017 	ldw	r2,-32768(gp)
  21233c:	00c00144 	movi	r3,5
  212340:	10c00045 	stb	r3,1(r2)
  212344:	d0a01817 	ldw	r2,-32672(gp)
  212348:	10800104 	addi	r2,r2,4
  21234c:	d0a01815 	stw	r2,-32672(gp)
  212350:	d0a01817 	ldw	r2,-32672(gp)
  212354:	10800d70 	cmpltui	r2,r2,53
  212358:	103fa61e 	bne	r2,zero,2121f4 <_gp+0xffff2d74>
  21235c:	00800504 	movi	r2,20
  212360:	d0a02105 	stb	r2,-32636(gp)
  212364:	d0201a05 	stb	zero,-32664(gp)
  212368:	d0a00017 	ldw	r2,-32768(gp)
  21236c:	00c00044 	movi	r3,1
  212370:	10c00045 	stb	r3,1(r2)
  212374:	00000f06 	br	2123b4 <main+0x1bdc>
  212378:	00ffffc4 	movi	r3,-1
  21237c:	008008b4 	movhi	r2,34
  212380:	10848904 	addi	r2,r2,4644
  212384:	10c00035 	stwio	r3,0(r2)
  212388:	d0202105 	stb	zero,-32636(gp)
  21238c:	d0201a05 	stb	zero,-32664(gp)
  212390:	d0a00017 	ldw	r2,-32768(gp)
  212394:	00c00044 	movi	r3,1
  212398:	10c00045 	stb	r3,1(r2)
  21239c:	00000506 	br	2123b4 <main+0x1bdc>
  2123a0:	d0a00017 	ldw	r2,-32768(gp)
  2123a4:	00c00144 	movi	r3,5
  2123a8:	10c00045 	stb	r3,1(r2)
  2123ac:	d0202105 	stb	zero,-32636(gp)
  2123b0:	d0201a05 	stb	zero,-32664(gp)
  2123b4:	d0a01a03 	ldbu	r2,-32664(gp)
  2123b8:	10803fcc 	andi	r2,r2,255
  2123bc:	103f461e 	bne	r2,zero,2120d8 <_gp+0xffff2c58>
  2123c0:	00000a06 	br	2123ec <main+0x1c14>
  2123c4:	00800044 	movi	r2,1
  2123c8:	d0a01b15 	stw	r2,-32660(gp)
  2123cc:	d0a00017 	ldw	r2,-32768(gp)
  2123d0:	00c00044 	movi	r3,1
  2123d4:	10c00045 	stb	r3,1(r2)
  2123d8:	00000406 	br	2123ec <main+0x1c14>
  2123dc:	d0a00017 	ldw	r2,-32768(gp)
  2123e0:	00c00044 	movi	r3,1
  2123e4:	10c00045 	stb	r3,1(r2)
  2123e8:	0001883a 	nop
  2123ec:	00010406 	br	212800 <main+0x2028>
  2123f0:	d0a00117 	ldw	r2,-32764(gp)
  2123f4:	10800243 	ldbu	r2,9(r2)
  2123f8:	10803fcc 	andi	r2,r2,255
  2123fc:	d0a02315 	stw	r2,-32628(gp)
  212400:	d0a02317 	ldw	r2,-32628(gp)
  212404:	10000826 	beq	r2,zero,212428 <main+0x1c50>
  212408:	d0a02317 	ldw	r2,-32628(gp)
  21240c:	10ffffc4 	addi	r3,r2,-1
  212410:	d0a02217 	ldw	r2,-32632(gp)
  212414:	18800426 	beq	r3,r2,212428 <main+0x1c50>
  212418:	d0a00017 	ldw	r2,-32768(gp)
  21241c:	00c00184 	movi	r3,6
  212420:	10c00045 	stb	r3,1(r2)
  212424:	0000f606 	br	212800 <main+0x2028>
  212428:	d0a02317 	ldw	r2,-32628(gp)
  21242c:	1000541e 	bne	r2,zero,212580 <main+0x1da8>
  212430:	00bfe004 	movi	r2,-128
  212434:	d0a01e45 	stb	r2,-32647(gp)
  212438:	00800084 	movi	r2,2
  21243c:	d0a01e85 	stb	r2,-32646(gp)
  212440:	d0201ec5 	stb	zero,-32645(gp)
  212444:	d0201f05 	stb	zero,-32644(gp)
  212448:	d8000215 	stw	zero,8(sp)
  21244c:	d8000115 	stw	zero,4(sp)
  212450:	d8000015 	stw	zero,0(sp)
  212454:	d1e01e44 	addi	r7,gp,-32647
  212458:	01800104 	movi	r6,4
  21245c:	000b883a 	mov	r5,zero
  212460:	010008b4 	movhi	r4,34
  212464:	21045004 	addi	r4,r4,4416
  212468:	0214aec0 	call	214aec <alt_avalon_spi_command>
  21246c:	e0bff015 	stw	r2,-64(fp)
  212470:	00bfe004 	movi	r2,-128
  212474:	d0a01e45 	stb	r2,-32647(gp)
  212478:	00800084 	movi	r2,2
  21247c:	d0a01e85 	stb	r2,-32646(gp)
  212480:	d0201ec5 	stb	zero,-32645(gp)
  212484:	d0a00117 	ldw	r2,-32764(gp)
  212488:	10800203 	ldbu	r2,8(r2)
  21248c:	10803fcc 	andi	r2,r2,255
  212490:	10c000a0 	cmpeqi	r3,r2,2
  212494:	1800111e 	bne	r3,zero,2124dc <main+0x1d04>
  212498:	10c000e0 	cmpeqi	r3,r2,3
  21249c:	18001c1e 	bne	r3,zero,212510 <main+0x1d38>
  2124a0:	10800060 	cmpeqi	r2,r2,1
  2124a4:	10003626 	beq	r2,zero,212580 <main+0x1da8>
  2124a8:	00800044 	movi	r2,1
  2124ac:	d0a01f05 	stb	r2,-32644(gp)
  2124b0:	d8000215 	stw	zero,8(sp)
  2124b4:	d8000115 	stw	zero,4(sp)
  2124b8:	d8000015 	stw	zero,0(sp)
  2124bc:	d1e01e44 	addi	r7,gp,-32647
  2124c0:	01800104 	movi	r6,4
  2124c4:	000b883a 	mov	r5,zero
  2124c8:	010008b4 	movhi	r4,34
  2124cc:	21045004 	addi	r4,r4,4416
  2124d0:	0214aec0 	call	214aec <alt_avalon_spi_command>
  2124d4:	e0bff015 	stw	r2,-64(fp)
  2124d8:	00002906 	br	212580 <main+0x1da8>
  2124dc:	00800084 	movi	r2,2
  2124e0:	d0a01f05 	stb	r2,-32644(gp)
  2124e4:	d8000215 	stw	zero,8(sp)
  2124e8:	d8000115 	stw	zero,4(sp)
  2124ec:	d8000015 	stw	zero,0(sp)
  2124f0:	d1e01e44 	addi	r7,gp,-32647
  2124f4:	01800104 	movi	r6,4
  2124f8:	000b883a 	mov	r5,zero
  2124fc:	010008b4 	movhi	r4,34
  212500:	21045004 	addi	r4,r4,4416
  212504:	0214aec0 	call	214aec <alt_avalon_spi_command>
  212508:	e0bff015 	stw	r2,-64(fp)
  21250c:	00001c06 	br	212580 <main+0x1da8>
  212510:	008000c4 	movi	r2,3
  212514:	d0a01f05 	stb	r2,-32644(gp)
  212518:	d8000215 	stw	zero,8(sp)
  21251c:	d8000115 	stw	zero,4(sp)
  212520:	d8000015 	stw	zero,0(sp)
  212524:	d1e01e44 	addi	r7,gp,-32647
  212528:	01800104 	movi	r6,4
  21252c:	000b883a 	mov	r5,zero
  212530:	010008b4 	movhi	r4,34
  212534:	21045004 	addi	r4,r4,4416
  212538:	0214aec0 	call	214aec <alt_avalon_spi_command>
  21253c:	e0bff015 	stw	r2,-64(fp)
  212540:	d0201e45 	stb	zero,-32647(gp)
  212544:	008000c4 	movi	r2,3
  212548:	d0a01e85 	stb	r2,-32646(gp)
  21254c:	d8000215 	stw	zero,8(sp)
  212550:	d0a01e44 	addi	r2,gp,-32647
  212554:	d8800115 	stw	r2,4(sp)
  212558:	00800084 	movi	r2,2
  21255c:	d8800015 	stw	r2,0(sp)
  212560:	d1e01e44 	addi	r7,gp,-32647
  212564:	01800084 	movi	r6,2
  212568:	000b883a 	mov	r5,zero
  21256c:	010008b4 	movhi	r4,34
  212570:	21045004 	addi	r4,r4,4416
  212574:	0214aec0 	call	214aec <alt_avalon_spi_command>
  212578:	e0bff015 	stw	r2,-64(fp)
  21257c:	00008806 	br	2127a0 <main+0x1fc8>
  212580:	d0201e05 	stb	zero,-32648(gp)
  212584:	00001806 	br	2125e8 <main+0x1e10>
  212588:	d0201e45 	stb	zero,-32647(gp)
  21258c:	008000c4 	movi	r2,3
  212590:	d0a01e85 	stb	r2,-32646(gp)
  212594:	d8000215 	stw	zero,8(sp)
  212598:	d0a01e44 	addi	r2,gp,-32647
  21259c:	d8800115 	stw	r2,4(sp)
  2125a0:	00800084 	movi	r2,2
  2125a4:	d8800015 	stw	r2,0(sp)
  2125a8:	d1e01e44 	addi	r7,gp,-32647
  2125ac:	01800084 	movi	r6,2
  2125b0:	000b883a 	mov	r5,zero
  2125b4:	010008b4 	movhi	r4,34
  2125b8:	21045004 	addi	r4,r4,4416
  2125bc:	0214aec0 	call	214aec <alt_avalon_spi_command>
  2125c0:	e0bff015 	stw	r2,-64(fp)
  2125c4:	d0a01e83 	ldbu	r2,-32646(gp)
  2125c8:	10803fcc 	andi	r2,r2,255
  2125cc:	1080004c 	andi	r2,r2,1
  2125d0:	10000a1e 	bne	r2,zero,2125fc <main+0x1e24>
  2125d4:	d0a01e03 	ldbu	r2,-32648(gp)
  2125d8:	10800044 	addi	r2,r2,1
  2125dc:	d0a01e05 	stb	r2,-32648(gp)
  2125e0:	01000784 	movi	r4,30
  2125e4:	02148c00 	call	2148c0 <usleep>
  2125e8:	d0a01e03 	ldbu	r2,-32648(gp)
  2125ec:	10803fcc 	andi	r2,r2,255
  2125f0:	108007b0 	cmpltui	r2,r2,30
  2125f4:	103fe41e 	bne	r2,zero,212588 <_gp+0xffff3108>
  2125f8:	00000106 	br	212600 <main+0x1e28>
  2125fc:	0001883a 	nop
  212600:	d0201c05 	stb	zero,-32656(gp)
  212604:	00001b06 	br	212674 <main+0x1e9c>
  212608:	00bfe004 	movi	r2,-128
  21260c:	d0a01e45 	stb	r2,-32647(gp)
  212610:	00800104 	movi	r2,4
  212614:	d0a01e85 	stb	r2,-32646(gp)
  212618:	d0201ec5 	stb	zero,-32645(gp)
  21261c:	d0e00117 	ldw	r3,-32764(gp)
  212620:	d0a01c03 	ldbu	r2,-32656(gp)
  212624:	10803fcc 	andi	r2,r2,255
  212628:	10800084 	addi	r2,r2,2
  21262c:	1885883a 	add	r2,r3,r2
  212630:	10800204 	addi	r2,r2,8
  212634:	10800003 	ldbu	r2,0(r2)
  212638:	d0a01f05 	stb	r2,-32644(gp)
  21263c:	d8000215 	stw	zero,8(sp)
  212640:	d8000115 	stw	zero,4(sp)
  212644:	d8000015 	stw	zero,0(sp)
  212648:	d1e01e44 	addi	r7,gp,-32647
  21264c:	01800104 	movi	r6,4
  212650:	000b883a 	mov	r5,zero
  212654:	010008b4 	movhi	r4,34
  212658:	21045004 	addi	r4,r4,4416
  21265c:	0214aec0 	call	214aec <alt_avalon_spi_command>
  212660:	e0bff015 	stw	r2,-64(fp)
  212664:	d0201e05 	stb	zero,-32648(gp)
  212668:	d0a01c03 	ldbu	r2,-32656(gp)
  21266c:	10800044 	addi	r2,r2,1
  212670:	d0a01c05 	stb	r2,-32656(gp)
  212674:	d0a01c03 	ldbu	r2,-32656(gp)
  212678:	10803fcc 	andi	r2,r2,255
  21267c:	10800830 	cmpltui	r2,r2,32
  212680:	103fe11e 	bne	r2,zero,212608 <_gp+0xffff3188>
  212684:	d0201e05 	stb	zero,-32648(gp)
  212688:	d0201e45 	stb	zero,-32647(gp)
  21268c:	008000c4 	movi	r2,3
  212690:	d0a01e85 	stb	r2,-32646(gp)
  212694:	d8000215 	stw	zero,8(sp)
  212698:	d0a01e44 	addi	r2,gp,-32647
  21269c:	d8800115 	stw	r2,4(sp)
  2126a0:	00800084 	movi	r2,2
  2126a4:	d8800015 	stw	r2,0(sp)
  2126a8:	d1e01e44 	addi	r7,gp,-32647
  2126ac:	01800084 	movi	r6,2
  2126b0:	000b883a 	mov	r5,zero
  2126b4:	010008b4 	movhi	r4,34
  2126b8:	21045004 	addi	r4,r4,4416
  2126bc:	0214aec0 	call	214aec <alt_avalon_spi_command>
  2126c0:	e0bff015 	stw	r2,-64(fp)
  2126c4:	d0a01e83 	ldbu	r2,-32646(gp)
  2126c8:	10803fcc 	andi	r2,r2,255
  2126cc:	1080004c 	andi	r2,r2,1
  2126d0:	1000061e 	bne	r2,zero,2126ec <main+0x1f14>
  2126d4:	d0a01e03 	ldbu	r2,-32648(gp)
  2126d8:	10800044 	addi	r2,r2,1
  2126dc:	d0a01e05 	stb	r2,-32648(gp)
  2126e0:	01000784 	movi	r4,30
  2126e4:	02148c00 	call	2148c0 <usleep>
  2126e8:	003fe706 	br	212688 <_gp+0xffff3208>
  2126ec:	0001883a 	nop
  2126f0:	d0a02317 	ldw	r2,-32628(gp)
  2126f4:	10803fd8 	cmpnei	r2,r2,255
  2126f8:	1000271e 	bne	r2,zero,212798 <main+0x1fc0>
  2126fc:	d0201e05 	stb	zero,-32648(gp)
  212700:	00001806 	br	212764 <main+0x1f8c>
  212704:	d0201e45 	stb	zero,-32647(gp)
  212708:	008000c4 	movi	r2,3
  21270c:	d0a01e85 	stb	r2,-32646(gp)
  212710:	d8000215 	stw	zero,8(sp)
  212714:	d0a01e44 	addi	r2,gp,-32647
  212718:	d8800115 	stw	r2,4(sp)
  21271c:	00800084 	movi	r2,2
  212720:	d8800015 	stw	r2,0(sp)
  212724:	d1e01e44 	addi	r7,gp,-32647
  212728:	01800084 	movi	r6,2
  21272c:	000b883a 	mov	r5,zero
  212730:	010008b4 	movhi	r4,34
  212734:	21045004 	addi	r4,r4,4416
  212738:	0214aec0 	call	214aec <alt_avalon_spi_command>
  21273c:	e0bff015 	stw	r2,-64(fp)
  212740:	d0a01e83 	ldbu	r2,-32646(gp)
  212744:	10803fcc 	andi	r2,r2,255
  212748:	1080100c 	andi	r2,r2,64
  21274c:	10000a1e 	bne	r2,zero,212778 <main+0x1fa0>
  212750:	d0a01e03 	ldbu	r2,-32648(gp)
  212754:	10800044 	addi	r2,r2,1
  212758:	d0a01e05 	stb	r2,-32648(gp)
  21275c:	01000784 	movi	r4,30
  212760:	02148c00 	call	2148c0 <usleep>
  212764:	d0a01e03 	ldbu	r2,-32648(gp)
  212768:	10803fcc 	andi	r2,r2,255
  21276c:	108007b0 	cmpltui	r2,r2,30
  212770:	103fe41e 	bne	r2,zero,212704 <_gp+0xffff3284>
  212774:	00000106 	br	21277c <main+0x1fa4>
  212778:	0001883a 	nop
  21277c:	d0a01e03 	ldbu	r2,-32648(gp)
  212780:	10803fcc 	andi	r2,r2,255
  212784:	10800798 	cmpnei	r2,r2,30
  212788:	1000031e 	bne	r2,zero,212798 <main+0x1fc0>
  21278c:	d0a02443 	ldbu	r2,-32623(gp)
  212790:	10800044 	addi	r2,r2,1
  212794:	d0a02445 	stb	r2,-32623(gp)
  212798:	d0a02317 	ldw	r2,-32628(gp)
  21279c:	d0a02215 	stw	r2,-32632(gp)
  2127a0:	d0a02443 	ldbu	r2,-32623(gp)
  2127a4:	10803fcc 	andi	r2,r2,255
  2127a8:	10000426 	beq	r2,zero,2127bc <main+0x1fe4>
  2127ac:	d0a00017 	ldw	r2,-32768(gp)
  2127b0:	00c00144 	movi	r3,5
  2127b4:	10c00045 	stb	r3,1(r2)
  2127b8:	00001106 	br	212800 <main+0x2028>
  2127bc:	d0a00017 	ldw	r2,-32768(gp)
  2127c0:	00c00044 	movi	r3,1
  2127c4:	10c00045 	stb	r3,1(r2)
  2127c8:	00000d06 	br	212800 <main+0x2028>
  2127cc:	d0a00017 	ldw	r2,-32768(gp)
  2127d0:	00c00084 	movi	r3,2
  2127d4:	10c00045 	stb	r3,1(r2)
  2127d8:	00000906 	br	212800 <main+0x2028>
  2127dc:	0001883a 	nop
  2127e0:	00000706 	br	212800 <main+0x2028>
  2127e4:	0001883a 	nop
  2127e8:	00000506 	br	212800 <main+0x2028>
  2127ec:	0001883a 	nop
  2127f0:	00000306 	br	212800 <main+0x2028>
  2127f4:	0001883a 	nop
  2127f8:	00000106 	br	212800 <main+0x2028>
  2127fc:	0001883a 	nop
  212800:	e03fec15 	stw	zero,-80(fp)
  212804:	00000e06 	br	212840 <main+0x2068>
  212808:	e0bfec17 	ldw	r2,-80(fp)
  21280c:	1085883a 	add	r2,r2,r2
  212810:	1085883a 	add	r2,r2,r2
  212814:	1007883a 	mov	r3,r2
  212818:	e0bfed17 	ldw	r2,-76(fp)
  21281c:	10c5883a 	add	r2,r2,r3
  212820:	10800017 	ldw	r2,0(r2)
  212824:	1007883a 	mov	r3,r2
  212828:	008008b4 	movhi	r2,34
  21282c:	10848404 	addi	r2,r2,4624
  212830:	10c00035 	stwio	r3,0(r2)
  212834:	e0bfec17 	ldw	r2,-80(fp)
  212838:	10800044 	addi	r2,r2,1
  21283c:	e0bfec15 	stw	r2,-80(fp)
  212840:	e0bfec17 	ldw	r2,-80(fp)
  212844:	10800430 	cmpltui	r2,r2,16
  212848:	103fef1e 	bne	r2,zero,212808 <_gp+0xffff3388>
  21284c:	d0a01b17 	ldw	r2,-32660(gp)
  212850:	10800058 	cmpnei	r2,r2,1
  212854:	10381d1e 	bne	r2,zero,2108cc <_gp+0xffff144c>
  212858:	02106a80 	call	2106a8 <boot_from_flash>
  21285c:	00381b06 	br	2108cc <_gp+0xffff144c>

00212860 <ReverseBitOrder>:
  212860:	defffd04 	addi	sp,sp,-12
  212864:	df000215 	stw	fp,8(sp)
  212868:	df000204 	addi	fp,sp,8
  21286c:	2005883a 	mov	r2,r4
  212870:	e0bfff05 	stb	r2,-4(fp)
  212874:	e0bfff03 	ldbu	r2,-4(fp)
  212878:	e0bffe05 	stb	r2,-8(fp)
  21287c:	e0bffe03 	ldbu	r2,-8(fp)
  212880:	1004d07a 	srli	r2,r2,1
  212884:	1080154c 	andi	r2,r2,85
  212888:	1007883a 	mov	r3,r2
  21288c:	e0bffe03 	ldbu	r2,-8(fp)
  212890:	1085883a 	add	r2,r2,r2
  212894:	1009883a 	mov	r4,r2
  212898:	00bfea84 	movi	r2,-86
  21289c:	2084703a 	and	r2,r4,r2
  2128a0:	1884b03a 	or	r2,r3,r2
  2128a4:	e0bffe05 	stb	r2,-8(fp)
  2128a8:	e0bffe03 	ldbu	r2,-8(fp)
  2128ac:	1004d0ba 	srli	r2,r2,2
  2128b0:	10800ccc 	andi	r2,r2,51
  2128b4:	1007883a 	mov	r3,r2
  2128b8:	e0bffe03 	ldbu	r2,-8(fp)
  2128bc:	1085883a 	add	r2,r2,r2
  2128c0:	1085883a 	add	r2,r2,r2
  2128c4:	1009883a 	mov	r4,r2
  2128c8:	00bff304 	movi	r2,-52
  2128cc:	2084703a 	and	r2,r4,r2
  2128d0:	1884b03a 	or	r2,r3,r2
  2128d4:	e0bffe05 	stb	r2,-8(fp)
  2128d8:	e0bffe03 	ldbu	r2,-8(fp)
  2128dc:	1004d13a 	srli	r2,r2,4
  2128e0:	1007883a 	mov	r3,r2
  2128e4:	e0bffe03 	ldbu	r2,-8(fp)
  2128e8:	1004913a 	slli	r2,r2,4
  2128ec:	1884b03a 	or	r2,r3,r2
  2128f0:	e0bffe05 	stb	r2,-8(fp)
  2128f4:	e0bffe03 	ldbu	r2,-8(fp)
  2128f8:	e037883a 	mov	sp,fp
  2128fc:	df000017 	ldw	fp,0(sp)
  212900:	dec00104 	addi	sp,sp,4
  212904:	f800283a 	ret

00212908 <FlashSpiFastRead>:
  212908:	defffe04 	addi	sp,sp,-8
  21290c:	df000115 	stw	fp,4(sp)
  212910:	df000104 	addi	fp,sp,4
  212914:	e13fff15 	stw	r4,-4(fp)
  212918:	e0bfff17 	ldw	r2,-4(fp)
  21291c:	d0a02605 	stb	r2,-32616(gp)
  212920:	0001883a 	nop
  212924:	e037883a 	mov	sp,fp
  212928:	df000017 	ldw	fp,0(sp)
  21292c:	dec00104 	addi	sp,sp,4
  212930:	f800283a 	ret

00212934 <FlashSpiRead>:
  212934:	defff504 	addi	sp,sp,-44
  212938:	dfc00a15 	stw	ra,40(sp)
  21293c:	df000915 	stw	fp,36(sp)
  212940:	df000904 	addi	fp,sp,36
  212944:	e13ffc15 	stw	r4,-16(fp)
  212948:	e17ffd15 	stw	r5,-12(fp)
  21294c:	e1bffe15 	stw	r6,-8(fp)
  212950:	3805883a 	mov	r2,r7
  212954:	e0bfff0d 	sth	r2,-4(fp)
  212958:	e03ffa05 	stb	zero,-24(fp)
  21295c:	00800044 	movi	r2,1
  212960:	d0a02605 	stb	r2,-32616(gp)
  212964:	e0bfff0b 	ldhu	r2,-4(fp)
  212968:	1000021e 	bne	r2,zero,212974 <FlashSpiRead+0x40>
  21296c:	0005883a 	mov	r2,zero
  212970:	00002306 	br	212a00 <FlashSpiRead+0xcc>
  212974:	e0bffe17 	ldw	r2,-8(fp)
  212978:	1004d43a 	srli	r2,r2,16
  21297c:	e0bffa85 	stb	r2,-22(fp)
  212980:	e0bffe17 	ldw	r2,-8(fp)
  212984:	1004d23a 	srli	r2,r2,8
  212988:	e0bffac5 	stb	r2,-21(fp)
  21298c:	e0bffe17 	ldw	r2,-8(fp)
  212990:	e0bffb05 	stb	r2,-20(fp)
  212994:	008000c4 	movi	r2,3
  212998:	e0bffa45 	stb	r2,-23(fp)
  21299c:	d0a02603 	ldbu	r2,-32616(gp)
  2129a0:	10803fcc 	andi	r2,r2,255
  2129a4:	1080201c 	xori	r2,r2,128
  2129a8:	10bfe004 	addi	r2,r2,-128
  2129ac:	1000081e 	bne	r2,zero,2129d0 <FlashSpiRead+0x9c>
  2129b0:	e17ffd17 	ldw	r5,-12(fp)
  2129b4:	e13ffc17 	ldw	r4,-16(fp)
  2129b8:	0212bd40 	call	212bd4 <CyFxSpiWaitForStatus>
  2129bc:	e0bffa05 	stb	r2,-24(fp)
  2129c0:	e0bffa03 	ldbu	r2,-24(fp)
  2129c4:	1000021e 	bne	r2,zero,2129d0 <FlashSpiRead+0x9c>
  2129c8:	e0bffa03 	ldbu	r2,-24(fp)
  2129cc:	00000c06 	br	212a00 <FlashSpiRead+0xcc>
  2129d0:	e0bfff0b 	ldhu	r2,-4(fp)
  2129d4:	e13ffa44 	addi	r4,fp,-23
  2129d8:	d8000215 	stw	zero,8(sp)
  2129dc:	e0c00217 	ldw	r3,8(fp)
  2129e0:	d8c00115 	stw	r3,4(sp)
  2129e4:	d8800015 	stw	r2,0(sp)
  2129e8:	200f883a 	mov	r7,r4
  2129ec:	01800104 	movi	r6,4
  2129f0:	e17ffd17 	ldw	r5,-12(fp)
  2129f4:	e13ffc17 	ldw	r4,-16(fp)
  2129f8:	0214aec0 	call	214aec <alt_avalon_spi_command>
  2129fc:	e0bffa03 	ldbu	r2,-24(fp)
  212a00:	e037883a 	mov	sp,fp
  212a04:	dfc00117 	ldw	ra,4(sp)
  212a08:	df000017 	ldw	fp,0(sp)
  212a0c:	dec00204 	addi	sp,sp,8
  212a10:	f800283a 	ret

00212a14 <FlashSpiTransfer>:
  212a14:	defff404 	addi	sp,sp,-48
  212a18:	dfc00b15 	stw	ra,44(sp)
  212a1c:	df000a15 	stw	fp,40(sp)
  212a20:	df000a04 	addi	fp,sp,40
  212a24:	e13ffc15 	stw	r4,-16(fp)
  212a28:	e17ffd15 	stw	r5,-12(fp)
  212a2c:	e1bffe15 	stw	r6,-8(fp)
  212a30:	3805883a 	mov	r2,r7
  212a34:	e0bfff0d 	sth	r2,-4(fp)
  212a38:	e03ff915 	stw	zero,-28(fp)
  212a3c:	e0bfff0b 	ldhu	r2,-4(fp)
  212a40:	1004d23a 	srli	r2,r2,8
  212a44:	e0bffa0d 	sth	r2,-24(fp)
  212a48:	e03ffa85 	stb	zero,-22(fp)
  212a4c:	00800044 	movi	r2,1
  212a50:	d0a02605 	stb	r2,-32616(gp)
  212a54:	e0bfff0b 	ldhu	r2,-4(fp)
  212a58:	1000021e 	bne	r2,zero,212a64 <FlashSpiTransfer+0x50>
  212a5c:	0005883a 	mov	r2,zero
  212a60:	00005706 	br	212bc0 <FlashSpiTransfer+0x1ac>
  212a64:	e0bfff0b 	ldhu	r2,-4(fp)
  212a68:	10803fcc 	andi	r2,r2,255
  212a6c:	10bfffcc 	andi	r2,r2,65535
  212a70:	10000226 	beq	r2,zero,212a7c <FlashSpiTransfer+0x68>
  212a74:	00800044 	movi	r2,1
  212a78:	00005106 	br	212bc0 <FlashSpiTransfer+0x1ac>
  212a7c:	e0bffe17 	ldw	r2,-8(fp)
  212a80:	1004923a 	slli	r2,r2,8
  212a84:	e0bff915 	stw	r2,-28(fp)
  212a88:	00004a06 	br	212bb4 <FlashSpiTransfer+0x1a0>
  212a8c:	e0bff917 	ldw	r2,-28(fp)
  212a90:	1004d43a 	srli	r2,r2,16
  212a94:	e0bffb05 	stb	r2,-20(fp)
  212a98:	e0bff917 	ldw	r2,-28(fp)
  212a9c:	1004d23a 	srli	r2,r2,8
  212aa0:	e0bffb45 	stb	r2,-19(fp)
  212aa4:	e0bff917 	ldw	r2,-28(fp)
  212aa8:	e0bffb85 	stb	r2,-18(fp)
  212aac:	e0800317 	ldw	r2,12(fp)
  212ab0:	10001b26 	beq	r2,zero,212b20 <FlashSpiTransfer+0x10c>
  212ab4:	008000c4 	movi	r2,3
  212ab8:	e0bffac5 	stb	r2,-21(fp)
  212abc:	d0a02603 	ldbu	r2,-32616(gp)
  212ac0:	10803fcc 	andi	r2,r2,255
  212ac4:	1080201c 	xori	r2,r2,128
  212ac8:	10bfe004 	addi	r2,r2,-128
  212acc:	1000081e 	bne	r2,zero,212af0 <FlashSpiTransfer+0xdc>
  212ad0:	e17ffd17 	ldw	r5,-12(fp)
  212ad4:	e13ffc17 	ldw	r4,-16(fp)
  212ad8:	0212bd40 	call	212bd4 <CyFxSpiWaitForStatus>
  212adc:	e0bffa85 	stb	r2,-22(fp)
  212ae0:	e0bffa83 	ldbu	r2,-22(fp)
  212ae4:	1000021e 	bne	r2,zero,212af0 <FlashSpiTransfer+0xdc>
  212ae8:	e0bffa83 	ldbu	r2,-22(fp)
  212aec:	00003406 	br	212bc0 <FlashSpiTransfer+0x1ac>
  212af0:	e0fffac4 	addi	r3,fp,-21
  212af4:	d8000215 	stw	zero,8(sp)
  212af8:	e0800217 	ldw	r2,8(fp)
  212afc:	d8800115 	stw	r2,4(sp)
  212b00:	00804004 	movi	r2,256
  212b04:	d8800015 	stw	r2,0(sp)
  212b08:	180f883a 	mov	r7,r3
  212b0c:	01800104 	movi	r6,4
  212b10:	e17ffd17 	ldw	r5,-12(fp)
  212b14:	e13ffc17 	ldw	r4,-16(fp)
  212b18:	0214aec0 	call	214aec <alt_avalon_spi_command>
  212b1c:	00001c06 	br	212b90 <FlashSpiTransfer+0x17c>
  212b20:	00800084 	movi	r2,2
  212b24:	e0bffac5 	stb	r2,-21(fp)
  212b28:	e17ffd17 	ldw	r5,-12(fp)
  212b2c:	e13ffc17 	ldw	r4,-16(fp)
  212b30:	0212bd40 	call	212bd4 <CyFxSpiWaitForStatus>
  212b34:	e0bffa85 	stb	r2,-22(fp)
  212b38:	e0bffa83 	ldbu	r2,-22(fp)
  212b3c:	10000226 	beq	r2,zero,212b48 <FlashSpiTransfer+0x134>
  212b40:	e0bffa83 	ldbu	r2,-22(fp)
  212b44:	00001e06 	br	212bc0 <FlashSpiTransfer+0x1ac>
  212b48:	e0fffac4 	addi	r3,fp,-21
  212b4c:	00800044 	movi	r2,1
  212b50:	d8800215 	stw	r2,8(sp)
  212b54:	d8000115 	stw	zero,4(sp)
  212b58:	d8000015 	stw	zero,0(sp)
  212b5c:	180f883a 	mov	r7,r3
  212b60:	01800104 	movi	r6,4
  212b64:	e17ffd17 	ldw	r5,-12(fp)
  212b68:	e13ffc17 	ldw	r4,-16(fp)
  212b6c:	0214aec0 	call	214aec <alt_avalon_spi_command>
  212b70:	d8000215 	stw	zero,8(sp)
  212b74:	d8000115 	stw	zero,4(sp)
  212b78:	d8000015 	stw	zero,0(sp)
  212b7c:	e1c00217 	ldw	r7,8(fp)
  212b80:	01804004 	movi	r6,256
  212b84:	e17ffd17 	ldw	r5,-12(fp)
  212b88:	e13ffc17 	ldw	r4,-16(fp)
  212b8c:	0214aec0 	call	214aec <alt_avalon_spi_command>
  212b90:	e0bff917 	ldw	r2,-28(fp)
  212b94:	10804004 	addi	r2,r2,256
  212b98:	e0bff915 	stw	r2,-28(fp)
  212b9c:	e0800217 	ldw	r2,8(fp)
  212ba0:	10804004 	addi	r2,r2,256
  212ba4:	e0800215 	stw	r2,8(fp)
  212ba8:	e0bffa0b 	ldhu	r2,-24(fp)
  212bac:	10bfffc4 	addi	r2,r2,-1
  212bb0:	e0bffa0d 	sth	r2,-24(fp)
  212bb4:	e0bffa0b 	ldhu	r2,-24(fp)
  212bb8:	103fb41e 	bne	r2,zero,212a8c <_gp+0xffff360c>
  212bbc:	e0bffa83 	ldbu	r2,-22(fp)
  212bc0:	e037883a 	mov	sp,fp
  212bc4:	dfc00117 	ldw	ra,4(sp)
  212bc8:	df000017 	ldw	fp,0(sp)
  212bcc:	dec00204 	addi	sp,sp,8
  212bd0:	f800283a 	ret

00212bd4 <CyFxSpiWaitForStatus>:
  212bd4:	defff704 	addi	sp,sp,-36
  212bd8:	dfc00815 	stw	ra,32(sp)
  212bdc:	df000715 	stw	fp,28(sp)
  212be0:	df000704 	addi	fp,sp,28
  212be4:	e13ffe15 	stw	r4,-8(fp)
  212be8:	e17fff15 	stw	r5,-4(fp)
  212bec:	e03ffc15 	stw	zero,-16(fp)
  212bf0:	00800184 	movi	r2,6
  212bf4:	e0bffd05 	stb	r2,-12(fp)
  212bf8:	e0bffd04 	addi	r2,fp,-12
  212bfc:	d8000215 	stw	zero,8(sp)
  212c00:	d8000115 	stw	zero,4(sp)
  212c04:	d8000015 	stw	zero,0(sp)
  212c08:	100f883a 	mov	r7,r2
  212c0c:	01800044 	movi	r6,1
  212c10:	e17fff17 	ldw	r5,-4(fp)
  212c14:	e13ffe17 	ldw	r4,-8(fp)
  212c18:	0214aec0 	call	214aec <alt_avalon_spi_command>
  212c1c:	00800144 	movi	r2,5
  212c20:	e0bffd05 	stb	r2,-12(fp)
  212c24:	e0fffd04 	addi	r3,fp,-12
  212c28:	d8000215 	stw	zero,8(sp)
  212c2c:	e0bffd84 	addi	r2,fp,-10
  212c30:	d8800115 	stw	r2,4(sp)
  212c34:	00800084 	movi	r2,2
  212c38:	d8800015 	stw	r2,0(sp)
  212c3c:	180f883a 	mov	r7,r3
  212c40:	01800044 	movi	r6,1
  212c44:	e17fff17 	ldw	r5,-4(fp)
  212c48:	e13ffe17 	ldw	r4,-8(fp)
  212c4c:	0214aec0 	call	214aec <alt_avalon_spi_command>
  212c50:	e0bffc17 	ldw	r2,-16(fp)
  212c54:	1089c430 	cmpltui	r2,r2,10000
  212c58:	1000021e 	bne	r2,zero,212c64 <CyFxSpiWaitForStatus+0x90>
  212c5c:	00800044 	movi	r2,1
  212c60:	00000c06 	br	212c94 <CyFxSpiWaitForStatus+0xc0>
  212c64:	e0bffc17 	ldw	r2,-16(fp)
  212c68:	10800044 	addi	r2,r2,1
  212c6c:	e0bffc15 	stw	r2,-16(fp)
  212c70:	e0bffd83 	ldbu	r2,-10(fp)
  212c74:	10803fcc 	andi	r2,r2,255
  212c78:	1080004c 	andi	r2,r2,1
  212c7c:	103fdc1e 	bne	r2,zero,212bf0 <_gp+0xffff3770>
  212c80:	e0bffd83 	ldbu	r2,-10(fp)
  212c84:	10803fcc 	andi	r2,r2,255
  212c88:	1080008c 	andi	r2,r2,2
  212c8c:	103fd826 	beq	r2,zero,212bf0 <_gp+0xffff3770>
  212c90:	0005883a 	mov	r2,zero
  212c94:	e037883a 	mov	sp,fp
  212c98:	dfc00117 	ldw	ra,4(sp)
  212c9c:	df000017 	ldw	fp,0(sp)
  212ca0:	dec00204 	addi	sp,sp,8
  212ca4:	f800283a 	ret

00212ca8 <FlashSpiEraseSector>:
  212ca8:	defff204 	addi	sp,sp,-56
  212cac:	dfc00d15 	stw	ra,52(sp)
  212cb0:	df000c15 	stw	fp,48(sp)
  212cb4:	df000c04 	addi	fp,sp,48
  212cb8:	e13ffc15 	stw	r4,-16(fp)
  212cbc:	e17ffd15 	stw	r5,-12(fp)
  212cc0:	3007883a 	mov	r3,r6
  212cc4:	3805883a 	mov	r2,r7
  212cc8:	e0fffe05 	stb	r3,-8(fp)
  212ccc:	e0bfff05 	stb	r2,-4(fp)
  212cd0:	e03ff815 	stw	zero,-32(fp)
  212cd4:	e03ff715 	stw	zero,-36(fp)
  212cd8:	00800184 	movi	r2,6
  212cdc:	e0bffa05 	stb	r2,-24(fp)
  212ce0:	e0bffa04 	addi	r2,fp,-24
  212ce4:	d8000215 	stw	zero,8(sp)
  212ce8:	d8000115 	stw	zero,4(sp)
  212cec:	d8000015 	stw	zero,0(sp)
  212cf0:	100f883a 	mov	r7,r2
  212cf4:	01800044 	movi	r6,1
  212cf8:	e17ffd17 	ldw	r5,-12(fp)
  212cfc:	e13ffc17 	ldw	r4,-16(fp)
  212d00:	0214aec0 	call	214aec <alt_avalon_spi_command>
  212d04:	e0bff915 	stw	r2,-28(fp)
  212d08:	e0bffe03 	ldbu	r2,-8(fp)
  212d0c:	10001726 	beq	r2,zero,212d6c <FlashSpiEraseSector+0xc4>
  212d10:	00800804 	movi	r2,32
  212d14:	e0bffa05 	stb	r2,-24(fp)
  212d18:	e0bfff03 	ldbu	r2,-4(fp)
  212d1c:	1004943a 	slli	r2,r2,16
  212d20:	e0bff815 	stw	r2,-32(fp)
  212d24:	e0bff817 	ldw	r2,-32(fp)
  212d28:	1004d43a 	srli	r2,r2,16
  212d2c:	e0bffa45 	stb	r2,-23(fp)
  212d30:	e0bff817 	ldw	r2,-32(fp)
  212d34:	1004d23a 	srli	r2,r2,8
  212d38:	e0bffa85 	stb	r2,-22(fp)
  212d3c:	e0bff817 	ldw	r2,-32(fp)
  212d40:	e0bffac5 	stb	r2,-21(fp)
  212d44:	e0bffa04 	addi	r2,fp,-24
  212d48:	d8000215 	stw	zero,8(sp)
  212d4c:	d8000115 	stw	zero,4(sp)
  212d50:	d8000015 	stw	zero,0(sp)
  212d54:	100f883a 	mov	r7,r2
  212d58:	01800104 	movi	r6,4
  212d5c:	e17ffd17 	ldw	r5,-12(fp)
  212d60:	e13ffc17 	ldw	r4,-16(fp)
  212d64:	0214aec0 	call	214aec <alt_avalon_spi_command>
  212d68:	e0bff915 	stw	r2,-28(fp)
  212d6c:	00800144 	movi	r2,5
  212d70:	e0bffa05 	stb	r2,-24(fp)
  212d74:	e0fffa04 	addi	r3,fp,-24
  212d78:	d8000215 	stw	zero,8(sp)
  212d7c:	e0bffb04 	addi	r2,fp,-20
  212d80:	d8800115 	stw	r2,4(sp)
  212d84:	00800044 	movi	r2,1
  212d88:	d8800015 	stw	r2,0(sp)
  212d8c:	180f883a 	mov	r7,r3
  212d90:	01800044 	movi	r6,1
  212d94:	e17ffd17 	ldw	r5,-12(fp)
  212d98:	e13ffc17 	ldw	r4,-16(fp)
  212d9c:	0214aec0 	call	214aec <alt_avalon_spi_command>
  212da0:	e0bff915 	stw	r2,-28(fp)
  212da4:	e0fff717 	ldw	r3,-36(fp)
  212da8:	00800bb4 	movhi	r2,46
  212dac:	10b1afc4 	addi	r2,r2,-14657
  212db0:	10c0022e 	bgeu	r2,r3,212dbc <FlashSpiEraseSector+0x114>
  212db4:	00800044 	movi	r2,1
  212db8:	00000806 	br	212ddc <FlashSpiEraseSector+0x134>
  212dbc:	e0bff717 	ldw	r2,-36(fp)
  212dc0:	10800044 	addi	r2,r2,1
  212dc4:	e0bff715 	stw	r2,-36(fp)
  212dc8:	e0bffb03 	ldbu	r2,-20(fp)
  212dcc:	10803fcc 	andi	r2,r2,255
  212dd0:	1080004c 	andi	r2,r2,1
  212dd4:	103fe71e 	bne	r2,zero,212d74 <_gp+0xffff38f4>
  212dd8:	0005883a 	mov	r2,zero
  212ddc:	e037883a 	mov	sp,fp
  212de0:	dfc00117 	ldw	ra,4(sp)
  212de4:	df000017 	ldw	fp,0(sp)
  212de8:	dec00204 	addi	sp,sp,8
  212dec:	f800283a 	ret

00212df0 <vctcxo_tamer_read>:
  212df0:	defffe04 	addi	sp,sp,-8
  212df4:	df000115 	stw	fp,4(sp)
  212df8:	df000104 	addi	fp,sp,4
  212dfc:	2005883a 	mov	r2,r4
  212e00:	e0bfff05 	stb	r2,-4(fp)
  212e04:	e0ffff03 	ldbu	r3,-4(fp)
  212e08:	008008b4 	movhi	r2,34
  212e0c:	10840004 	addi	r2,r2,4096
  212e10:	1885883a 	add	r2,r3,r2
  212e14:	10800023 	ldbuio	r2,0(r2)
  212e18:	10803fcc 	andi	r2,r2,255
  212e1c:	e037883a 	mov	sp,fp
  212e20:	df000017 	ldw	fp,0(sp)
  212e24:	dec00104 	addi	sp,sp,4
  212e28:	f800283a 	ret

00212e2c <vctcxo_tamer_write>:
  212e2c:	defffd04 	addi	sp,sp,-12
  212e30:	df000215 	stw	fp,8(sp)
  212e34:	df000204 	addi	fp,sp,8
  212e38:	2007883a 	mov	r3,r4
  212e3c:	2805883a 	mov	r2,r5
  212e40:	e0fffe05 	stb	r3,-8(fp)
  212e44:	e0bfff05 	stb	r2,-4(fp)
  212e48:	e0fffe03 	ldbu	r3,-8(fp)
  212e4c:	008008b4 	movhi	r2,34
  212e50:	10840004 	addi	r2,r2,4096
  212e54:	1885883a 	add	r2,r3,r2
  212e58:	e0ffff03 	ldbu	r3,-4(fp)
  212e5c:	10c00025 	stbio	r3,0(r2)
  212e60:	0001883a 	nop
  212e64:	e037883a 	mov	sp,fp
  212e68:	df000017 	ldw	fp,0(sp)
  212e6c:	dec00104 	addi	sp,sp,4
  212e70:	f800283a 	ret

00212e74 <vctcxo_tamer_reset_counters>:
  212e74:	defffd04 	addi	sp,sp,-12
  212e78:	dfc00215 	stw	ra,8(sp)
  212e7c:	df000115 	stw	fp,4(sp)
  212e80:	df000104 	addi	fp,sp,4
  212e84:	2005883a 	mov	r2,r4
  212e88:	e0bfff05 	stb	r2,-4(fp)
  212e8c:	e0bfff03 	ldbu	r2,-4(fp)
  212e90:	10000426 	beq	r2,zero,212ea4 <vctcxo_tamer_reset_counters+0x30>
  212e94:	d0a02643 	ldbu	r2,-32615(gp)
  212e98:	10800054 	ori	r2,r2,1
  212e9c:	d0a02645 	stb	r2,-32615(gp)
  212ea0:	00000406 	br	212eb4 <vctcxo_tamer_reset_counters+0x40>
  212ea4:	d0e02643 	ldbu	r3,-32615(gp)
  212ea8:	00bfff84 	movi	r2,-2
  212eac:	1884703a 	and	r2,r3,r2
  212eb0:	d0a02645 	stb	r2,-32615(gp)
  212eb4:	d0a02643 	ldbu	r2,-32615(gp)
  212eb8:	10803fcc 	andi	r2,r2,255
  212ebc:	100b883a 	mov	r5,r2
  212ec0:	0009883a 	mov	r4,zero
  212ec4:	0212e2c0 	call	212e2c <vctcxo_tamer_write>
  212ec8:	0001883a 	nop
  212ecc:	e037883a 	mov	sp,fp
  212ed0:	dfc00117 	ldw	ra,4(sp)
  212ed4:	df000017 	ldw	fp,0(sp)
  212ed8:	dec00204 	addi	sp,sp,8
  212edc:	f800283a 	ret

00212ee0 <vctcxo_tamer_enable_isr>:
  212ee0:	defffd04 	addi	sp,sp,-12
  212ee4:	dfc00215 	stw	ra,8(sp)
  212ee8:	df000115 	stw	fp,4(sp)
  212eec:	df000104 	addi	fp,sp,4
  212ef0:	2005883a 	mov	r2,r4
  212ef4:	e0bfff05 	stb	r2,-4(fp)
  212ef8:	e0bfff03 	ldbu	r2,-4(fp)
  212efc:	10000426 	beq	r2,zero,212f10 <vctcxo_tamer_enable_isr+0x30>
  212f00:	d0a02643 	ldbu	r2,-32615(gp)
  212f04:	10800414 	ori	r2,r2,16
  212f08:	d0a02645 	stb	r2,-32615(gp)
  212f0c:	00000406 	br	212f20 <vctcxo_tamer_enable_isr+0x40>
  212f10:	d0e02643 	ldbu	r3,-32615(gp)
  212f14:	00bffbc4 	movi	r2,-17
  212f18:	1884703a 	and	r2,r3,r2
  212f1c:	d0a02645 	stb	r2,-32615(gp)
  212f20:	d0a02643 	ldbu	r2,-32615(gp)
  212f24:	10803fcc 	andi	r2,r2,255
  212f28:	100b883a 	mov	r5,r2
  212f2c:	0009883a 	mov	r4,zero
  212f30:	0212e2c0 	call	212e2c <vctcxo_tamer_write>
  212f34:	0001883a 	nop
  212f38:	e037883a 	mov	sp,fp
  212f3c:	dfc00117 	ldw	ra,4(sp)
  212f40:	df000017 	ldw	fp,0(sp)
  212f44:	dec00204 	addi	sp,sp,8
  212f48:	f800283a 	ret

00212f4c <vctcxo_tamer_clear_isr>:
  212f4c:	defffe04 	addi	sp,sp,-8
  212f50:	dfc00115 	stw	ra,4(sp)
  212f54:	df000015 	stw	fp,0(sp)
  212f58:	d839883a 	mov	fp,sp
  212f5c:	d0a02643 	ldbu	r2,-32615(gp)
  212f60:	10800814 	ori	r2,r2,32
  212f64:	10803fcc 	andi	r2,r2,255
  212f68:	100b883a 	mov	r5,r2
  212f6c:	0009883a 	mov	r4,zero
  212f70:	0212e2c0 	call	212e2c <vctcxo_tamer_write>
  212f74:	0001883a 	nop
  212f78:	e037883a 	mov	sp,fp
  212f7c:	dfc00117 	ldw	ra,4(sp)
  212f80:	df000017 	ldw	fp,0(sp)
  212f84:	dec00204 	addi	sp,sp,8
  212f88:	f800283a 	ret

00212f8c <vctcxo_tamer_set_tune_mode>:
  212f8c:	defffd04 	addi	sp,sp,-12
  212f90:	dfc00215 	stw	ra,8(sp)
  212f94:	df000115 	stw	fp,4(sp)
  212f98:	df000104 	addi	fp,sp,4
  212f9c:	e13fff15 	stw	r4,-4(fp)
  212fa0:	e0bfff17 	ldw	r2,-4(fp)
  212fa4:	1005883a 	mov	r2,r2
  212fa8:	108000e8 	cmpgeui	r2,r2,3
  212fac:	1000221e 	bne	r2,zero,213038 <vctcxo_tamer_set_tune_mode+0xac>
  212fb0:	0009883a 	mov	r4,zero
  212fb4:	0212ee00 	call	212ee0 <vctcxo_tamer_enable_isr>
  212fb8:	0001883a 	nop
  212fbc:	d0a02643 	ldbu	r2,-32615(gp)
  212fc0:	10800fcc 	andi	r2,r2,63
  212fc4:	d0a02645 	stb	r2,-32615(gp)
  212fc8:	e0bfff17 	ldw	r2,-4(fp)
  212fcc:	10803fcc 	andi	r2,r2,255
  212fd0:	100491ba 	slli	r2,r2,6
  212fd4:	1007883a 	mov	r3,r2
  212fd8:	d0a02643 	ldbu	r2,-32615(gp)
  212fdc:	1884b03a 	or	r2,r3,r2
  212fe0:	d0a02645 	stb	r2,-32615(gp)
  212fe4:	d0a02643 	ldbu	r2,-32615(gp)
  212fe8:	10803fcc 	andi	r2,r2,255
  212fec:	100b883a 	mov	r5,r2
  212ff0:	0009883a 	mov	r4,zero
  212ff4:	0212e2c0 	call	212e2c <vctcxo_tamer_write>
  212ff8:	01000044 	movi	r4,1
  212ffc:	0212e740 	call	212e74 <vctcxo_tamer_reset_counters>
  213000:	e0bfff17 	ldw	r2,-4(fp)
  213004:	10000226 	beq	r2,zero,213010 <vctcxo_tamer_set_tune_mode+0x84>
  213008:	0009883a 	mov	r4,zero
  21300c:	0212e740 	call	212e74 <vctcxo_tamer_reset_counters>
  213010:	e0bfff17 	ldw	r2,-4(fp)
  213014:	10bfffc4 	addi	r2,r2,-1
  213018:	108000a8 	cmpgeui	r2,r2,2
  21301c:	1000031e 	bne	r2,zero,21302c <vctcxo_tamer_set_tune_mode+0xa0>
  213020:	01000044 	movi	r4,1
  213024:	0212ee00 	call	212ee0 <vctcxo_tamer_enable_isr>
  213028:	00000106 	br	213030 <vctcxo_tamer_set_tune_mode+0xa4>
  21302c:	0001883a 	nop
  213030:	0001883a 	nop
  213034:	00000106 	br	21303c <vctcxo_tamer_set_tune_mode+0xb0>
  213038:	0001883a 	nop
  21303c:	e037883a 	mov	sp,fp
  213040:	dfc00117 	ldw	ra,4(sp)
  213044:	df000017 	ldw	fp,0(sp)
  213048:	dec00204 	addi	sp,sp,8
  21304c:	f800283a 	ret

00213050 <vctcxo_tamer_read_count>:
  213050:	defffb04 	addi	sp,sp,-20
  213054:	df000415 	stw	fp,16(sp)
  213058:	df000404 	addi	fp,sp,16
  21305c:	2005883a 	mov	r2,r4
  213060:	e0bfff05 	stb	r2,-4(fp)
  213064:	008008b4 	movhi	r2,34
  213068:	10840004 	addi	r2,r2,4096
  21306c:	e0bffc15 	stw	r2,-16(fp)
  213070:	e0bfff03 	ldbu	r2,-4(fp)
  213074:	e0bffd05 	stb	r2,-12(fp)
  213078:	e03ffe15 	stw	zero,-8(fp)
  21307c:	e0bffd03 	ldbu	r2,-12(fp)
  213080:	10c00044 	addi	r3,r2,1
  213084:	e0fffd05 	stb	r3,-12(fp)
  213088:	10c03fcc 	andi	r3,r2,255
  21308c:	e0bffc17 	ldw	r2,-16(fp)
  213090:	1885883a 	add	r2,r3,r2
  213094:	10800023 	ldbuio	r2,0(r2)
  213098:	10803fcc 	andi	r2,r2,255
  21309c:	e0bffe15 	stw	r2,-8(fp)
  2130a0:	e0bffd03 	ldbu	r2,-12(fp)
  2130a4:	10c00044 	addi	r3,r2,1
  2130a8:	e0fffd05 	stb	r3,-12(fp)
  2130ac:	10c03fcc 	andi	r3,r2,255
  2130b0:	e0bffc17 	ldw	r2,-16(fp)
  2130b4:	1885883a 	add	r2,r3,r2
  2130b8:	10800023 	ldbuio	r2,0(r2)
  2130bc:	10803fcc 	andi	r2,r2,255
  2130c0:	1004923a 	slli	r2,r2,8
  2130c4:	e0fffe17 	ldw	r3,-8(fp)
  2130c8:	1884b03a 	or	r2,r3,r2
  2130cc:	e0bffe15 	stw	r2,-8(fp)
  2130d0:	e0bffd03 	ldbu	r2,-12(fp)
  2130d4:	10c00044 	addi	r3,r2,1
  2130d8:	e0fffd05 	stb	r3,-12(fp)
  2130dc:	10c03fcc 	andi	r3,r2,255
  2130e0:	e0bffc17 	ldw	r2,-16(fp)
  2130e4:	1885883a 	add	r2,r3,r2
  2130e8:	10800023 	ldbuio	r2,0(r2)
  2130ec:	10803fcc 	andi	r2,r2,255
  2130f0:	1004943a 	slli	r2,r2,16
  2130f4:	e0fffe17 	ldw	r3,-8(fp)
  2130f8:	1884b03a 	or	r2,r3,r2
  2130fc:	e0bffe15 	stw	r2,-8(fp)
  213100:	e0bffd03 	ldbu	r2,-12(fp)
  213104:	10c00044 	addi	r3,r2,1
  213108:	e0fffd05 	stb	r3,-12(fp)
  21310c:	10c03fcc 	andi	r3,r2,255
  213110:	e0bffc17 	ldw	r2,-16(fp)
  213114:	1885883a 	add	r2,r3,r2
  213118:	10800023 	ldbuio	r2,0(r2)
  21311c:	10803fcc 	andi	r2,r2,255
  213120:	1004963a 	slli	r2,r2,24
  213124:	e0fffe17 	ldw	r3,-8(fp)
  213128:	1884b03a 	or	r2,r3,r2
  21312c:	e0bffe15 	stw	r2,-8(fp)
  213130:	e0bffe17 	ldw	r2,-8(fp)
  213134:	e037883a 	mov	sp,fp
  213138:	df000017 	ldw	fp,0(sp)
  21313c:	dec00104 	addi	sp,sp,4
  213140:	f800283a 	ret

00213144 <vctcxo_trim_dac_write>:
  213144:	defffb04 	addi	sp,sp,-20
  213148:	dfc00415 	stw	ra,16(sp)
  21314c:	df000315 	stw	fp,12(sp)
  213150:	df000304 	addi	fp,sp,12
  213154:	2007883a 	mov	r3,r4
  213158:	2805883a 	mov	r2,r5
  21315c:	e0fffe05 	stb	r3,-8(fp)
  213160:	e0bfff0d 	sth	r2,-4(fp)
  213164:	e0bfff0b 	ldhu	r2,-4(fp)
  213168:	e0bffd05 	stb	r2,-12(fp)
  21316c:	e0bfff0b 	ldhu	r2,-4(fp)
  213170:	1004d23a 	srli	r2,r2,8
  213174:	e0bffd45 	stb	r2,-11(fp)
  213178:	e0bffd03 	ldbu	r2,-12(fp)
  21317c:	100b883a 	mov	r5,r2
  213180:	01000804 	movi	r4,32
  213184:	0212e2c0 	call	212e2c <vctcxo_tamer_write>
  213188:	e0bffd43 	ldbu	r2,-11(fp)
  21318c:	100b883a 	mov	r5,r2
  213190:	01000844 	movi	r4,33
  213194:	0212e2c0 	call	212e2c <vctcxo_tamer_write>
  213198:	0001883a 	nop
  21319c:	e037883a 	mov	sp,fp
  2131a0:	dfc00117 	ldw	ra,4(sp)
  2131a4:	df000017 	ldw	fp,0(sp)
  2131a8:	dec00204 	addi	sp,sp,8
  2131ac:	f800283a 	ret

002131b0 <vctcxo_tamer_isr>:
  2131b0:	defffb04 	addi	sp,sp,-20
  2131b4:	dfc00415 	stw	ra,16(sp)
  2131b8:	df000315 	stw	fp,12(sp)
  2131bc:	df000304 	addi	fp,sp,12
  2131c0:	e13fff15 	stw	r4,-4(fp)
  2131c4:	e0bfff17 	ldw	r2,-4(fp)
  2131c8:	e0bffd15 	stw	r2,-12(fp)
  2131cc:	e03ffe05 	stb	zero,-8(fp)
  2131d0:	0009883a 	mov	r4,zero
  2131d4:	0212ee00 	call	212ee0 <vctcxo_tamer_enable_isr>
  2131d8:	01000044 	movi	r4,1
  2131dc:	0212e740 	call	212e74 <vctcxo_tamer_reset_counters>
  2131e0:	01000104 	movi	r4,4
  2131e4:	02130500 	call	213050 <vctcxo_tamer_read_count>
  2131e8:	1007883a 	mov	r3,r2
  2131ec:	e0bffd17 	ldw	r2,-12(fp)
  2131f0:	10c00115 	stw	r3,4(r2)
  2131f4:	01000304 	movi	r4,12
  2131f8:	02130500 	call	213050 <vctcxo_tamer_read_count>
  2131fc:	1007883a 	mov	r3,r2
  213200:	e0bffd17 	ldw	r2,-12(fp)
  213204:	10c00315 	stw	r3,12(r2)
  213208:	01000504 	movi	r4,20
  21320c:	02130500 	call	213050 <vctcxo_tamer_read_count>
  213210:	1007883a 	mov	r3,r2
  213214:	e0bffd17 	ldw	r2,-12(fp)
  213218:	10c00515 	stw	r3,20(r2)
  21321c:	01000044 	movi	r4,1
  213220:	0212df00 	call	212df0 <vctcxo_tamer_read>
  213224:	e0bffe05 	stb	r2,-8(fp)
  213228:	e0bffe03 	ldbu	r2,-8(fp)
  21322c:	1080004c 	andi	r2,r2,1
  213230:	1004c03a 	cmpne	r2,r2,zero
  213234:	1007883a 	mov	r3,r2
  213238:	e0bffd17 	ldw	r2,-12(fp)
  21323c:	10c00205 	stb	r3,8(r2)
  213240:	e0bffe03 	ldbu	r2,-8(fp)
  213244:	1080008c 	andi	r2,r2,2
  213248:	1004c03a 	cmpne	r2,r2,zero
  21324c:	1007883a 	mov	r3,r2
  213250:	e0bffd17 	ldw	r2,-12(fp)
  213254:	10c00405 	stb	r3,16(r2)
  213258:	e0bffe03 	ldbu	r2,-8(fp)
  21325c:	1080010c 	andi	r2,r2,4
  213260:	1004c03a 	cmpne	r2,r2,zero
  213264:	1007883a 	mov	r3,r2
  213268:	e0bffd17 	ldw	r2,-12(fp)
  21326c:	10c00605 	stb	r3,24(r2)
  213270:	0212f4c0 	call	212f4c <vctcxo_tamer_clear_isr>
  213274:	e0bffd17 	ldw	r2,-12(fp)
  213278:	00c00044 	movi	r3,1
  21327c:	10c00005 	stb	r3,0(r2)
  213280:	0001883a 	nop
  213284:	e037883a 	mov	sp,fp
  213288:	dfc00117 	ldw	ra,4(sp)
  21328c:	df000017 	ldw	fp,0(sp)
  213290:	dec00204 	addi	sp,sp,8
  213294:	f800283a 	ret

00213298 <vctcxo_tamer_init>:
  213298:	defffe04 	addi	sp,sp,-8
  21329c:	dfc00115 	stw	ra,4(sp)
  2132a0:	df000015 	stw	fp,0(sp)
  2132a4:	d839883a 	mov	fp,sp
  2132a8:	000b883a 	mov	r5,zero
  2132ac:	01000704 	movi	r4,28
  2132b0:	0212e2c0 	call	212e2c <vctcxo_tamer_write>
  2132b4:	01000044 	movi	r4,1
  2132b8:	0212f8c0 	call	212f8c <vctcxo_tamer_set_tune_mode>
  2132bc:	0001883a 	nop
  2132c0:	e037883a 	mov	sp,fp
  2132c4:	dfc00117 	ldw	ra,4(sp)
  2132c8:	df000017 	ldw	fp,0(sp)
  2132cc:	dec00204 	addi	sp,sp,8
  2132d0:	f800283a 	ret

002132d4 <vctcxo_tamer_dis>:
  2132d4:	defffe04 	addi	sp,sp,-8
  2132d8:	dfc00115 	stw	ra,4(sp)
  2132dc:	df000015 	stw	fp,0(sp)
  2132e0:	d839883a 	mov	fp,sp
  2132e4:	0009883a 	mov	r4,zero
  2132e8:	0212f8c0 	call	212f8c <vctcxo_tamer_set_tune_mode>
  2132ec:	000b883a 	mov	r5,zero
  2132f0:	01000704 	movi	r4,28
  2132f4:	0212e2c0 	call	212e2c <vctcxo_tamer_write>
  2132f8:	0001883a 	nop
  2132fc:	e037883a 	mov	sp,fp
  213300:	dfc00117 	ldw	ra,4(sp)
  213304:	df000017 	ldw	fp,0(sp)
  213308:	dec00204 	addi	sp,sp,8
  21330c:	f800283a 	ret

00213310 <lroundf>:
  213310:	20dfe02c 	andhi	r3,r4,32640
  213314:	1806d5fa 	srli	r3,r3,23
  213318:	deffff04 	addi	sp,sp,-4
  21331c:	dfc00015 	stw	ra,0(sp)
  213320:	18ffe044 	addi	r3,r3,-127
  213324:	20001416 	blt	r4,zero,213378 <lroundf+0x68>
  213328:	01400044 	movi	r5,1
  21332c:	00800784 	movi	r2,30
  213330:	10c00d16 	blt	r2,r3,213368 <lroundf+0x58>
  213334:	18001916 	blt	r3,zero,21339c <lroundf+0x8c>
  213338:	00802034 	movhi	r2,128
  21333c:	10bfffc4 	addi	r2,r2,-1
  213340:	1108703a 	and	r4,r2,r4
  213344:	00800584 	movi	r2,22
  213348:	21002034 	orhi	r4,r4,128
  21334c:	10c00c0e 	bge	r2,r3,213380 <lroundf+0x70>
  213350:	18fffa44 	addi	r3,r3,-23
  213354:	20c8983a 	sll	r4,r4,r3
  213358:	02135700 	call	213570 <__mulsi3>
  21335c:	dfc00017 	ldw	ra,0(sp)
  213360:	dec00104 	addi	sp,sp,4
  213364:	f800283a 	ret
  213368:	0213e080 	call	213e08 <__fixsfsi>
  21336c:	dfc00017 	ldw	ra,0(sp)
  213370:	dec00104 	addi	sp,sp,4
  213374:	f800283a 	ret
  213378:	017fffc4 	movi	r5,-1
  21337c:	003feb06 	br	21332c <_gp+0xffff3eac>
  213380:	01801034 	movhi	r6,64
  213384:	30cdd83a 	sra	r6,r6,r3
  213388:	008005c4 	movi	r2,23
  21338c:	10c7c83a 	sub	r3,r2,r3
  213390:	3109883a 	add	r4,r6,r4
  213394:	20c8d83a 	srl	r4,r4,r3
  213398:	003fef06 	br	213358 <_gp+0xffff3ed8>
  21339c:	00bfffc4 	movi	r2,-1
  2133a0:	1880041e 	bne	r3,r2,2133b4 <lroundf+0xa4>
  2133a4:	2805883a 	mov	r2,r5
  2133a8:	dfc00017 	ldw	ra,0(sp)
  2133ac:	dec00104 	addi	sp,sp,4
  2133b0:	f800283a 	ret
  2133b4:	0005883a 	mov	r2,zero
  2133b8:	003fe806 	br	21335c <_gp+0xffff3edc>

002133bc <__divsi3>:
  2133bc:	20001b16 	blt	r4,zero,21342c <__divsi3+0x70>
  2133c0:	000f883a 	mov	r7,zero
  2133c4:	28001616 	blt	r5,zero,213420 <__divsi3+0x64>
  2133c8:	200d883a 	mov	r6,r4
  2133cc:	29001a2e 	bgeu	r5,r4,213438 <__divsi3+0x7c>
  2133d0:	00800804 	movi	r2,32
  2133d4:	00c00044 	movi	r3,1
  2133d8:	00000106 	br	2133e0 <__divsi3+0x24>
  2133dc:	10000d26 	beq	r2,zero,213414 <__divsi3+0x58>
  2133e0:	294b883a 	add	r5,r5,r5
  2133e4:	10bfffc4 	addi	r2,r2,-1
  2133e8:	18c7883a 	add	r3,r3,r3
  2133ec:	293ffb36 	bltu	r5,r4,2133dc <_gp+0xffff3f5c>
  2133f0:	0005883a 	mov	r2,zero
  2133f4:	18000726 	beq	r3,zero,213414 <__divsi3+0x58>
  2133f8:	0005883a 	mov	r2,zero
  2133fc:	31400236 	bltu	r6,r5,213408 <__divsi3+0x4c>
  213400:	314dc83a 	sub	r6,r6,r5
  213404:	10c4b03a 	or	r2,r2,r3
  213408:	1806d07a 	srli	r3,r3,1
  21340c:	280ad07a 	srli	r5,r5,1
  213410:	183ffa1e 	bne	r3,zero,2133fc <_gp+0xffff3f7c>
  213414:	38000126 	beq	r7,zero,21341c <__divsi3+0x60>
  213418:	0085c83a 	sub	r2,zero,r2
  21341c:	f800283a 	ret
  213420:	014bc83a 	sub	r5,zero,r5
  213424:	39c0005c 	xori	r7,r7,1
  213428:	003fe706 	br	2133c8 <_gp+0xffff3f48>
  21342c:	0109c83a 	sub	r4,zero,r4
  213430:	01c00044 	movi	r7,1
  213434:	003fe306 	br	2133c4 <_gp+0xffff3f44>
  213438:	00c00044 	movi	r3,1
  21343c:	003fee06 	br	2133f8 <_gp+0xffff3f78>

00213440 <__modsi3>:
  213440:	20001716 	blt	r4,zero,2134a0 <__modsi3+0x60>
  213444:	000f883a 	mov	r7,zero
  213448:	2005883a 	mov	r2,r4
  21344c:	28001216 	blt	r5,zero,213498 <__modsi3+0x58>
  213450:	2900162e 	bgeu	r5,r4,2134ac <__modsi3+0x6c>
  213454:	01800804 	movi	r6,32
  213458:	00c00044 	movi	r3,1
  21345c:	00000106 	br	213464 <__modsi3+0x24>
  213460:	30000a26 	beq	r6,zero,21348c <__modsi3+0x4c>
  213464:	294b883a 	add	r5,r5,r5
  213468:	31bfffc4 	addi	r6,r6,-1
  21346c:	18c7883a 	add	r3,r3,r3
  213470:	293ffb36 	bltu	r5,r4,213460 <_gp+0xffff3fe0>
  213474:	18000526 	beq	r3,zero,21348c <__modsi3+0x4c>
  213478:	1806d07a 	srli	r3,r3,1
  21347c:	11400136 	bltu	r2,r5,213484 <__modsi3+0x44>
  213480:	1145c83a 	sub	r2,r2,r5
  213484:	280ad07a 	srli	r5,r5,1
  213488:	183ffb1e 	bne	r3,zero,213478 <_gp+0xffff3ff8>
  21348c:	38000126 	beq	r7,zero,213494 <__modsi3+0x54>
  213490:	0085c83a 	sub	r2,zero,r2
  213494:	f800283a 	ret
  213498:	014bc83a 	sub	r5,zero,r5
  21349c:	003fec06 	br	213450 <_gp+0xffff3fd0>
  2134a0:	0109c83a 	sub	r4,zero,r4
  2134a4:	01c00044 	movi	r7,1
  2134a8:	003fe706 	br	213448 <_gp+0xffff3fc8>
  2134ac:	00c00044 	movi	r3,1
  2134b0:	003ff106 	br	213478 <_gp+0xffff3ff8>

002134b4 <__udivsi3>:
  2134b4:	200d883a 	mov	r6,r4
  2134b8:	2900152e 	bgeu	r5,r4,213510 <__udivsi3+0x5c>
  2134bc:	28001416 	blt	r5,zero,213510 <__udivsi3+0x5c>
  2134c0:	00800804 	movi	r2,32
  2134c4:	00c00044 	movi	r3,1
  2134c8:	00000206 	br	2134d4 <__udivsi3+0x20>
  2134cc:	10000e26 	beq	r2,zero,213508 <__udivsi3+0x54>
  2134d0:	28000516 	blt	r5,zero,2134e8 <__udivsi3+0x34>
  2134d4:	294b883a 	add	r5,r5,r5
  2134d8:	10bfffc4 	addi	r2,r2,-1
  2134dc:	18c7883a 	add	r3,r3,r3
  2134e0:	293ffa36 	bltu	r5,r4,2134cc <_gp+0xffff404c>
  2134e4:	18000826 	beq	r3,zero,213508 <__udivsi3+0x54>
  2134e8:	0005883a 	mov	r2,zero
  2134ec:	31400236 	bltu	r6,r5,2134f8 <__udivsi3+0x44>
  2134f0:	314dc83a 	sub	r6,r6,r5
  2134f4:	10c4b03a 	or	r2,r2,r3
  2134f8:	1806d07a 	srli	r3,r3,1
  2134fc:	280ad07a 	srli	r5,r5,1
  213500:	183ffa1e 	bne	r3,zero,2134ec <_gp+0xffff406c>
  213504:	f800283a 	ret
  213508:	0005883a 	mov	r2,zero
  21350c:	f800283a 	ret
  213510:	00c00044 	movi	r3,1
  213514:	003ff406 	br	2134e8 <_gp+0xffff4068>

00213518 <__umodsi3>:
  213518:	2005883a 	mov	r2,r4
  21351c:	2900122e 	bgeu	r5,r4,213568 <__umodsi3+0x50>
  213520:	28001116 	blt	r5,zero,213568 <__umodsi3+0x50>
  213524:	01800804 	movi	r6,32
  213528:	00c00044 	movi	r3,1
  21352c:	00000206 	br	213538 <__umodsi3+0x20>
  213530:	30000c26 	beq	r6,zero,213564 <__umodsi3+0x4c>
  213534:	28000516 	blt	r5,zero,21354c <__umodsi3+0x34>
  213538:	294b883a 	add	r5,r5,r5
  21353c:	31bfffc4 	addi	r6,r6,-1
  213540:	18c7883a 	add	r3,r3,r3
  213544:	293ffa36 	bltu	r5,r4,213530 <_gp+0xffff40b0>
  213548:	18000626 	beq	r3,zero,213564 <__umodsi3+0x4c>
  21354c:	1806d07a 	srli	r3,r3,1
  213550:	11400136 	bltu	r2,r5,213558 <__umodsi3+0x40>
  213554:	1145c83a 	sub	r2,r2,r5
  213558:	280ad07a 	srli	r5,r5,1
  21355c:	183ffb1e 	bne	r3,zero,21354c <_gp+0xffff40cc>
  213560:	f800283a 	ret
  213564:	f800283a 	ret
  213568:	00c00044 	movi	r3,1
  21356c:	003ff706 	br	21354c <_gp+0xffff40cc>

00213570 <__mulsi3>:
  213570:	0005883a 	mov	r2,zero
  213574:	20000726 	beq	r4,zero,213594 <__mulsi3+0x24>
  213578:	20c0004c 	andi	r3,r4,1
  21357c:	2008d07a 	srli	r4,r4,1
  213580:	18000126 	beq	r3,zero,213588 <__mulsi3+0x18>
  213584:	1145883a 	add	r2,r2,r5
  213588:	294b883a 	add	r5,r5,r5
  21358c:	203ffa1e 	bne	r4,zero,213578 <_gp+0xffff40f8>
  213590:	f800283a 	ret
  213594:	f800283a 	ret

00213598 <__divsf3>:
  213598:	defff504 	addi	sp,sp,-44
  21359c:	200cd5fa 	srli	r6,r4,23
  2135a0:	dcc00415 	stw	r19,16(sp)
  2135a4:	2026d7fa 	srli	r19,r4,31
  2135a8:	00c02034 	movhi	r3,128
  2135ac:	dd800715 	stw	r22,28(sp)
  2135b0:	dd000515 	stw	r20,20(sp)
  2135b4:	dc800315 	stw	r18,12(sp)
  2135b8:	18ffffc4 	addi	r3,r3,-1
  2135bc:	dfc00a15 	stw	ra,40(sp)
  2135c0:	df000915 	stw	fp,36(sp)
  2135c4:	ddc00815 	stw	r23,32(sp)
  2135c8:	dd400615 	stw	r21,24(sp)
  2135cc:	dc400215 	stw	r17,8(sp)
  2135d0:	dc000115 	stw	r16,4(sp)
  2135d4:	35003fcc 	andi	r20,r6,255
  2135d8:	1924703a 	and	r18,r3,r4
  2135dc:	9d803fcc 	andi	r22,r19,255
  2135e0:	a0005226 	beq	r20,zero,21372c <__divsf3+0x194>
  2135e4:	00803fc4 	movi	r2,255
  2135e8:	a0802e26 	beq	r20,r2,2136a4 <__divsf3+0x10c>
  2135ec:	91002034 	orhi	r4,r18,128
  2135f0:	202490fa 	slli	r18,r4,3
  2135f4:	a53fe044 	addi	r20,r20,-127
  2135f8:	0021883a 	mov	r16,zero
  2135fc:	002f883a 	mov	r23,zero
  213600:	280cd5fa 	srli	r6,r5,23
  213604:	282ad7fa 	srli	r21,r5,31
  213608:	00c02034 	movhi	r3,128
  21360c:	18ffffc4 	addi	r3,r3,-1
  213610:	31803fcc 	andi	r6,r6,255
  213614:	1962703a 	and	r17,r3,r5
  213618:	af003fcc 	andi	fp,r21,255
  21361c:	30004a26 	beq	r6,zero,213748 <__divsf3+0x1b0>
  213620:	00803fc4 	movi	r2,255
  213624:	30804526 	beq	r6,r2,21373c <__divsf3+0x1a4>
  213628:	89402034 	orhi	r5,r17,128
  21362c:	282290fa 	slli	r17,r5,3
  213630:	31bfe044 	addi	r6,r6,-127
  213634:	000b883a 	mov	r5,zero
  213638:	2c20b03a 	or	r16,r5,r16
  21363c:	802090ba 	slli	r16,r16,2
  213640:	00800874 	movhi	r2,33
  213644:	108d9904 	addi	r2,r2,13924
  213648:	80a1883a 	add	r16,r16,r2
  21364c:	81000017 	ldw	r4,0(r16)
  213650:	9d46f03a 	xor	r3,r19,r21
  213654:	180f883a 	mov	r7,r3
  213658:	18803fcc 	andi	r2,r3,255
  21365c:	a18dc83a 	sub	r6,r20,r6
  213660:	2000683a 	jmp	r4
  213664:	00213848 	cmpgei	zero,zero,-31519
  213668:	002136cc 	andi	zero,zero,34011
  21366c:	0021383c 	xorhi	zero,zero,34016
  213670:	002136b8 	rdprs	zero,zero,-31526
  213674:	0021383c 	xorhi	zero,zero,34016
  213678:	00213814 	movui	zero,34016
  21367c:	0021383c 	xorhi	zero,zero,34016
  213680:	002136b8 	rdprs	zero,zero,-31526
  213684:	002136cc 	andi	zero,zero,34011
  213688:	002136cc 	andi	zero,zero,34011
  21368c:	00213814 	movui	zero,34016
  213690:	002136b8 	rdprs	zero,zero,-31526
  213694:	00213928 	cmpgeui	zero,zero,34020
  213698:	00213928 	cmpgeui	zero,zero,34020
  21369c:	00213928 	cmpgeui	zero,zero,34020
  2136a0:	002138dc 	xori	zero,zero,34019
  2136a4:	9000581e 	bne	r18,zero,213808 <__divsf3+0x270>
  2136a8:	04000204 	movi	r16,8
  2136ac:	05c00084 	movi	r23,2
  2136b0:	003fd306 	br	213600 <_gp+0xffff4180>
  2136b4:	0023883a 	mov	r17,zero
  2136b8:	e02d883a 	mov	r22,fp
  2136bc:	282f883a 	mov	r23,r5
  2136c0:	00800084 	movi	r2,2
  2136c4:	b8808f1e 	bne	r23,r2,213904 <__divsf3+0x36c>
  2136c8:	b005883a 	mov	r2,r22
  2136cc:	11c0004c 	andi	r7,r2,1
  2136d0:	013fffc4 	movi	r4,-1
  2136d4:	000d883a 	mov	r6,zero
  2136d8:	21003fcc 	andi	r4,r4,255
  2136dc:	200895fa 	slli	r4,r4,23
  2136e0:	38803fcc 	andi	r2,r7,255
  2136e4:	00c02034 	movhi	r3,128
  2136e8:	100497fa 	slli	r2,r2,31
  2136ec:	18ffffc4 	addi	r3,r3,-1
  2136f0:	30c6703a 	and	r3,r6,r3
  2136f4:	1906b03a 	or	r3,r3,r4
  2136f8:	1884b03a 	or	r2,r3,r2
  2136fc:	dfc00a17 	ldw	ra,40(sp)
  213700:	df000917 	ldw	fp,36(sp)
  213704:	ddc00817 	ldw	r23,32(sp)
  213708:	dd800717 	ldw	r22,28(sp)
  21370c:	dd400617 	ldw	r21,24(sp)
  213710:	dd000517 	ldw	r20,20(sp)
  213714:	dcc00417 	ldw	r19,16(sp)
  213718:	dc800317 	ldw	r18,12(sp)
  21371c:	dc400217 	ldw	r17,8(sp)
  213720:	dc000117 	ldw	r16,4(sp)
  213724:	dec00b04 	addi	sp,sp,44
  213728:	f800283a 	ret
  21372c:	90002b1e 	bne	r18,zero,2137dc <__divsf3+0x244>
  213730:	04000104 	movi	r16,4
  213734:	05c00044 	movi	r23,1
  213738:	003fb106 	br	213600 <_gp+0xffff4180>
  21373c:	8800251e 	bne	r17,zero,2137d4 <__divsf3+0x23c>
  213740:	01400084 	movi	r5,2
  213744:	00000206 	br	213750 <__divsf3+0x1b8>
  213748:	88001a1e 	bne	r17,zero,2137b4 <__divsf3+0x21c>
  21374c:	01400044 	movi	r5,1
  213750:	8160b03a 	or	r16,r16,r5
  213754:	802090ba 	slli	r16,r16,2
  213758:	00c00874 	movhi	r3,33
  21375c:	18cddd04 	addi	r3,r3,14196
  213760:	80e1883a 	add	r16,r16,r3
  213764:	80c00017 	ldw	r3,0(r16)
  213768:	9d44f03a 	xor	r2,r19,r21
  21376c:	a18dc83a 	sub	r6,r20,r6
  213770:	1800683a 	jmp	r3
  213774:	002136cc 	andi	zero,zero,34011
  213778:	002136cc 	andi	zero,zero,34011
  21377c:	00213918 	cmpnei	zero,zero,-31516
  213780:	002136b4 	movhi	zero,34010
  213784:	00213918 	cmpnei	zero,zero,-31516
  213788:	00213814 	movui	zero,34016
  21378c:	00213918 	cmpnei	zero,zero,-31516
  213790:	002136b4 	movhi	zero,34010
  213794:	002136cc 	andi	zero,zero,34011
  213798:	002136cc 	andi	zero,zero,34011
  21379c:	00213814 	movui	zero,34016
  2137a0:	002136b4 	movhi	zero,34010
  2137a4:	00213928 	cmpgeui	zero,zero,34020
  2137a8:	00213928 	cmpgeui	zero,zero,34020
  2137ac:	00213928 	cmpgeui	zero,zero,34020
  2137b0:	00213940 	call	21394 <__alt_mem_onchip_flash_0_data-0xdec6c>
  2137b4:	8809883a 	mov	r4,r17
  2137b8:	0213f9c0 	call	213f9c <__clzsi2>
  2137bc:	10fffec4 	addi	r3,r2,-5
  2137c0:	10801d84 	addi	r2,r2,118
  2137c4:	88e2983a 	sll	r17,r17,r3
  2137c8:	008dc83a 	sub	r6,zero,r2
  2137cc:	000b883a 	mov	r5,zero
  2137d0:	003f9906 	br	213638 <_gp+0xffff41b8>
  2137d4:	014000c4 	movi	r5,3
  2137d8:	003f9706 	br	213638 <_gp+0xffff41b8>
  2137dc:	9009883a 	mov	r4,r18
  2137e0:	d9400015 	stw	r5,0(sp)
  2137e4:	0213f9c0 	call	213f9c <__clzsi2>
  2137e8:	10fffec4 	addi	r3,r2,-5
  2137ec:	11801d84 	addi	r6,r2,118
  2137f0:	90e4983a 	sll	r18,r18,r3
  2137f4:	01a9c83a 	sub	r20,zero,r6
  2137f8:	0021883a 	mov	r16,zero
  2137fc:	002f883a 	mov	r23,zero
  213800:	d9400017 	ldw	r5,0(sp)
  213804:	003f7e06 	br	213600 <_gp+0xffff4180>
  213808:	04000304 	movi	r16,12
  21380c:	05c000c4 	movi	r23,3
  213810:	003f7b06 	br	213600 <_gp+0xffff4180>
  213814:	01802034 	movhi	r6,128
  213818:	000f883a 	mov	r7,zero
  21381c:	31bfffc4 	addi	r6,r6,-1
  213820:	013fffc4 	movi	r4,-1
  213824:	003fac06 	br	2136d8 <_gp+0xffff4258>
  213828:	01400044 	movi	r5,1
  21382c:	2909c83a 	sub	r4,r5,r4
  213830:	00c006c4 	movi	r3,27
  213834:	19004b0e 	bge	r3,r4,213964 <__divsf3+0x3cc>
  213838:	114e703a 	and	r7,r2,r5
  21383c:	0009883a 	mov	r4,zero
  213840:	000d883a 	mov	r6,zero
  213844:	003fa406 	br	2136d8 <_gp+0xffff4258>
  213848:	9006917a 	slli	r3,r18,5
  21384c:	8822917a 	slli	r17,r17,5
  213850:	1c40372e 	bgeu	r3,r17,213930 <__divsf3+0x398>
  213854:	31bfffc4 	addi	r6,r6,-1
  213858:	010006c4 	movi	r4,27
  21385c:	000b883a 	mov	r5,zero
  213860:	180f883a 	mov	r7,r3
  213864:	294b883a 	add	r5,r5,r5
  213868:	18c7883a 	add	r3,r3,r3
  21386c:	38000116 	blt	r7,zero,213874 <__divsf3+0x2dc>
  213870:	1c400236 	bltu	r3,r17,21387c <__divsf3+0x2e4>
  213874:	1c47c83a 	sub	r3,r3,r17
  213878:	29400054 	ori	r5,r5,1
  21387c:	213fffc4 	addi	r4,r4,-1
  213880:	203ff71e 	bne	r4,zero,213860 <_gp+0xffff43e0>
  213884:	1806c03a 	cmpne	r3,r3,zero
  213888:	1962b03a 	or	r17,r3,r5
  21388c:	31001fc4 	addi	r4,r6,127
  213890:	013fe50e 	bge	zero,r4,213828 <_gp+0xffff43a8>
  213894:	88c001cc 	andi	r3,r17,7
  213898:	18000426 	beq	r3,zero,2138ac <__divsf3+0x314>
  21389c:	88c003cc 	andi	r3,r17,15
  2138a0:	01400104 	movi	r5,4
  2138a4:	19400126 	beq	r3,r5,2138ac <__divsf3+0x314>
  2138a8:	8963883a 	add	r17,r17,r5
  2138ac:	88c2002c 	andhi	r3,r17,2048
  2138b0:	18000426 	beq	r3,zero,2138c4 <__divsf3+0x32c>
  2138b4:	00fe0034 	movhi	r3,63488
  2138b8:	18ffffc4 	addi	r3,r3,-1
  2138bc:	31002004 	addi	r4,r6,128
  2138c0:	88e2703a 	and	r17,r17,r3
  2138c4:	00c03f84 	movi	r3,254
  2138c8:	193f8016 	blt	r3,r4,2136cc <_gp+0xffff424c>
  2138cc:	880c91ba 	slli	r6,r17,6
  2138d0:	11c0004c 	andi	r7,r2,1
  2138d4:	300cd27a 	srli	r6,r6,9
  2138d8:	003f7f06 	br	2136d8 <_gp+0xffff4258>
  2138dc:	9080102c 	andhi	r2,r18,64
  2138e0:	10000226 	beq	r2,zero,2138ec <__divsf3+0x354>
  2138e4:	8880102c 	andhi	r2,r17,64
  2138e8:	10001826 	beq	r2,zero,21394c <__divsf3+0x3b4>
  2138ec:	00802034 	movhi	r2,128
  2138f0:	91801034 	orhi	r6,r18,64
  2138f4:	10bfffc4 	addi	r2,r2,-1
  2138f8:	980f883a 	mov	r7,r19
  2138fc:	308c703a 	and	r6,r6,r2
  213900:	003fc706 	br	213820 <_gp+0xffff43a0>
  213904:	008000c4 	movi	r2,3
  213908:	b8802d26 	beq	r23,r2,2139c0 <__divsf3+0x428>
  21390c:	00c00044 	movi	r3,1
  213910:	b005883a 	mov	r2,r22
  213914:	b8ffdd1e 	bne	r23,r3,21388c <_gp+0xffff440c>
  213918:	11c0004c 	andi	r7,r2,1
  21391c:	0009883a 	mov	r4,zero
  213920:	000d883a 	mov	r6,zero
  213924:	003f6c06 	br	2136d8 <_gp+0xffff4258>
  213928:	9023883a 	mov	r17,r18
  21392c:	003f6406 	br	2136c0 <_gp+0xffff4240>
  213930:	1c47c83a 	sub	r3,r3,r17
  213934:	01000684 	movi	r4,26
  213938:	01400044 	movi	r5,1
  21393c:	003fc806 	br	213860 <_gp+0xffff43e0>
  213940:	9080102c 	andhi	r2,r18,64
  213944:	103fe926 	beq	r2,zero,2138ec <_gp+0xffff446c>
  213948:	0023883a 	mov	r17,zero
  21394c:	00802034 	movhi	r2,128
  213950:	89801034 	orhi	r6,r17,64
  213954:	10bfffc4 	addi	r2,r2,-1
  213958:	a80f883a 	mov	r7,r21
  21395c:	308c703a 	and	r6,r6,r2
  213960:	003faf06 	br	213820 <_gp+0xffff43a0>
  213964:	01c00804 	movi	r7,32
  213968:	390fc83a 	sub	r7,r7,r4
  21396c:	89ce983a 	sll	r7,r17,r7
  213970:	890ad83a 	srl	r5,r17,r4
  213974:	380ec03a 	cmpne	r7,r7,zero
  213978:	29cab03a 	or	r5,r5,r7
  21397c:	28c001cc 	andi	r3,r5,7
  213980:	18000426 	beq	r3,zero,213994 <__divsf3+0x3fc>
  213984:	28c003cc 	andi	r3,r5,15
  213988:	01000104 	movi	r4,4
  21398c:	19000126 	beq	r3,r4,213994 <__divsf3+0x3fc>
  213990:	290b883a 	add	r5,r5,r4
  213994:	28c1002c 	andhi	r3,r5,1024
  213998:	18000426 	beq	r3,zero,2139ac <__divsf3+0x414>
  21399c:	11c0004c 	andi	r7,r2,1
  2139a0:	01000044 	movi	r4,1
  2139a4:	000d883a 	mov	r6,zero
  2139a8:	003f4b06 	br	2136d8 <_gp+0xffff4258>
  2139ac:	280a91ba 	slli	r5,r5,6
  2139b0:	11c0004c 	andi	r7,r2,1
  2139b4:	0009883a 	mov	r4,zero
  2139b8:	280cd27a 	srli	r6,r5,9
  2139bc:	003f4606 	br	2136d8 <_gp+0xffff4258>
  2139c0:	00802034 	movhi	r2,128
  2139c4:	89801034 	orhi	r6,r17,64
  2139c8:	10bfffc4 	addi	r2,r2,-1
  2139cc:	b00f883a 	mov	r7,r22
  2139d0:	308c703a 	and	r6,r6,r2
  2139d4:	003f9206 	br	213820 <_gp+0xffff43a0>

002139d8 <__mulsf3>:
  2139d8:	defff504 	addi	sp,sp,-44
  2139dc:	dc000115 	stw	r16,4(sp)
  2139e0:	2020d5fa 	srli	r16,r4,23
  2139e4:	dd400615 	stw	r21,24(sp)
  2139e8:	202ad7fa 	srli	r21,r4,31
  2139ec:	dc800315 	stw	r18,12(sp)
  2139f0:	04802034 	movhi	r18,128
  2139f4:	df000915 	stw	fp,36(sp)
  2139f8:	dd000515 	stw	r20,20(sp)
  2139fc:	94bfffc4 	addi	r18,r18,-1
  213a00:	dfc00a15 	stw	ra,40(sp)
  213a04:	ddc00815 	stw	r23,32(sp)
  213a08:	dd800715 	stw	r22,28(sp)
  213a0c:	dcc00415 	stw	r19,16(sp)
  213a10:	dc400215 	stw	r17,8(sp)
  213a14:	84003fcc 	andi	r16,r16,255
  213a18:	9124703a 	and	r18,r18,r4
  213a1c:	a829883a 	mov	r20,r21
  213a20:	af003fcc 	andi	fp,r21,255
  213a24:	80005426 	beq	r16,zero,213b78 <__mulsf3+0x1a0>
  213a28:	00803fc4 	movi	r2,255
  213a2c:	80802f26 	beq	r16,r2,213aec <__mulsf3+0x114>
  213a30:	91002034 	orhi	r4,r18,128
  213a34:	202490fa 	slli	r18,r4,3
  213a38:	843fe044 	addi	r16,r16,-127
  213a3c:	0023883a 	mov	r17,zero
  213a40:	002f883a 	mov	r23,zero
  213a44:	2804d5fa 	srli	r2,r5,23
  213a48:	282cd7fa 	srli	r22,r5,31
  213a4c:	01002034 	movhi	r4,128
  213a50:	213fffc4 	addi	r4,r4,-1
  213a54:	10803fcc 	andi	r2,r2,255
  213a58:	2166703a 	and	r19,r4,r5
  213a5c:	b1803fcc 	andi	r6,r22,255
  213a60:	10004c26 	beq	r2,zero,213b94 <__mulsf3+0x1bc>
  213a64:	00c03fc4 	movi	r3,255
  213a68:	10c04726 	beq	r2,r3,213b88 <__mulsf3+0x1b0>
  213a6c:	99002034 	orhi	r4,r19,128
  213a70:	202690fa 	slli	r19,r4,3
  213a74:	10bfe044 	addi	r2,r2,-127
  213a78:	0007883a 	mov	r3,zero
  213a7c:	80a1883a 	add	r16,r16,r2
  213a80:	010003c4 	movi	r4,15
  213a84:	1c44b03a 	or	r2,r3,r17
  213a88:	b56af03a 	xor	r21,r22,r21
  213a8c:	81c00044 	addi	r7,r16,1
  213a90:	20806b36 	bltu	r4,r2,213c40 <__mulsf3+0x268>
  213a94:	100490ba 	slli	r2,r2,2
  213a98:	01000874 	movhi	r4,33
  213a9c:	210eab04 	addi	r4,r4,15020
  213aa0:	1105883a 	add	r2,r2,r4
  213aa4:	10800017 	ldw	r2,0(r2)
  213aa8:	1000683a 	jmp	r2
  213aac:	00213c40 	call	213c4 <__alt_mem_onchip_flash_0_data-0xdec3c>
  213ab0:	00213b00 	call	213b0 <__alt_mem_onchip_flash_0_data-0xdec50>
  213ab4:	00213b00 	call	213b0 <__alt_mem_onchip_flash_0_data-0xdec50>
  213ab8:	00213afc 	xorhi	zero,zero,34027
  213abc:	00213c24 	muli	zero,zero,-31504
  213ac0:	00213c24 	muli	zero,zero,-31504
  213ac4:	00213c10 	cmplti	zero,zero,-31504
  213ac8:	00213afc 	xorhi	zero,zero,34027
  213acc:	00213c24 	muli	zero,zero,-31504
  213ad0:	00213c10 	cmplti	zero,zero,-31504
  213ad4:	00213c24 	muli	zero,zero,-31504
  213ad8:	00213afc 	xorhi	zero,zero,34027
  213adc:	00213c30 	cmpltui	zero,zero,34032
  213ae0:	00213c30 	cmpltui	zero,zero,34032
  213ae4:	00213c30 	cmpltui	zero,zero,34032
  213ae8:	00213d40 	call	213d4 <__alt_mem_onchip_flash_0_data-0xdec2c>
  213aec:	90003b1e 	bne	r18,zero,213bdc <__mulsf3+0x204>
  213af0:	04400204 	movi	r17,8
  213af4:	05c00084 	movi	r23,2
  213af8:	003fd206 	br	213a44 <_gp+0xffff45c4>
  213afc:	302b883a 	mov	r21,r6
  213b00:	00800084 	movi	r2,2
  213b04:	18802626 	beq	r3,r2,213ba0 <__mulsf3+0x1c8>
  213b08:	008000c4 	movi	r2,3
  213b0c:	1880b826 	beq	r3,r2,213df0 <__mulsf3+0x418>
  213b10:	00800044 	movi	r2,1
  213b14:	1880af1e 	bne	r3,r2,213dd4 <__mulsf3+0x3fc>
  213b18:	a829883a 	mov	r20,r21
  213b1c:	0007883a 	mov	r3,zero
  213b20:	0009883a 	mov	r4,zero
  213b24:	18803fcc 	andi	r2,r3,255
  213b28:	100695fa 	slli	r3,r2,23
  213b2c:	a0803fcc 	andi	r2,r20,255
  213b30:	100a97fa 	slli	r5,r2,31
  213b34:	00802034 	movhi	r2,128
  213b38:	10bfffc4 	addi	r2,r2,-1
  213b3c:	2084703a 	and	r2,r4,r2
  213b40:	10c4b03a 	or	r2,r2,r3
  213b44:	1144b03a 	or	r2,r2,r5
  213b48:	dfc00a17 	ldw	ra,40(sp)
  213b4c:	df000917 	ldw	fp,36(sp)
  213b50:	ddc00817 	ldw	r23,32(sp)
  213b54:	dd800717 	ldw	r22,28(sp)
  213b58:	dd400617 	ldw	r21,24(sp)
  213b5c:	dd000517 	ldw	r20,20(sp)
  213b60:	dcc00417 	ldw	r19,16(sp)
  213b64:	dc800317 	ldw	r18,12(sp)
  213b68:	dc400217 	ldw	r17,8(sp)
  213b6c:	dc000117 	ldw	r16,4(sp)
  213b70:	dec00b04 	addi	sp,sp,44
  213b74:	f800283a 	ret
  213b78:	90000d1e 	bne	r18,zero,213bb0 <__mulsf3+0x1d8>
  213b7c:	04400104 	movi	r17,4
  213b80:	05c00044 	movi	r23,1
  213b84:	003faf06 	br	213a44 <_gp+0xffff45c4>
  213b88:	9806c03a 	cmpne	r3,r19,zero
  213b8c:	18c00084 	addi	r3,r3,2
  213b90:	003fba06 	br	213a7c <_gp+0xffff45fc>
  213b94:	9800141e 	bne	r19,zero,213be8 <__mulsf3+0x210>
  213b98:	00c00044 	movi	r3,1
  213b9c:	003fb706 	br	213a7c <_gp+0xffff45fc>
  213ba0:	a829883a 	mov	r20,r21
  213ba4:	00ffffc4 	movi	r3,-1
  213ba8:	0009883a 	mov	r4,zero
  213bac:	003fdd06 	br	213b24 <_gp+0xffff46a4>
  213bb0:	9009883a 	mov	r4,r18
  213bb4:	d9400015 	stw	r5,0(sp)
  213bb8:	0213f9c0 	call	213f9c <__clzsi2>
  213bbc:	10fffec4 	addi	r3,r2,-5
  213bc0:	10801d84 	addi	r2,r2,118
  213bc4:	90e4983a 	sll	r18,r18,r3
  213bc8:	00a1c83a 	sub	r16,zero,r2
  213bcc:	0023883a 	mov	r17,zero
  213bd0:	002f883a 	mov	r23,zero
  213bd4:	d9400017 	ldw	r5,0(sp)
  213bd8:	003f9a06 	br	213a44 <_gp+0xffff45c4>
  213bdc:	04400304 	movi	r17,12
  213be0:	05c000c4 	movi	r23,3
  213be4:	003f9706 	br	213a44 <_gp+0xffff45c4>
  213be8:	9809883a 	mov	r4,r19
  213bec:	d9800015 	stw	r6,0(sp)
  213bf0:	0213f9c0 	call	213f9c <__clzsi2>
  213bf4:	10fffec4 	addi	r3,r2,-5
  213bf8:	10801d84 	addi	r2,r2,118
  213bfc:	98e6983a 	sll	r19,r19,r3
  213c00:	0085c83a 	sub	r2,zero,r2
  213c04:	0007883a 	mov	r3,zero
  213c08:	d9800017 	ldw	r6,0(sp)
  213c0c:	003f9b06 	br	213a7c <_gp+0xffff45fc>
  213c10:	01002034 	movhi	r4,128
  213c14:	0029883a 	mov	r20,zero
  213c18:	213fffc4 	addi	r4,r4,-1
  213c1c:	00ffffc4 	movi	r3,-1
  213c20:	003fc006 	br	213b24 <_gp+0xffff46a4>
  213c24:	9027883a 	mov	r19,r18
  213c28:	b807883a 	mov	r3,r23
  213c2c:	003fb406 	br	213b00 <_gp+0xffff4680>
  213c30:	9027883a 	mov	r19,r18
  213c34:	e02b883a 	mov	r21,fp
  213c38:	b807883a 	mov	r3,r23
  213c3c:	003fb006 	br	213b00 <_gp+0xffff4680>
  213c40:	9028d43a 	srli	r20,r18,16
  213c44:	982cd43a 	srli	r22,r19,16
  213c48:	94bfffcc 	andi	r18,r18,65535
  213c4c:	9cffffcc 	andi	r19,r19,65535
  213c50:	980b883a 	mov	r5,r19
  213c54:	9009883a 	mov	r4,r18
  213c58:	d9c00015 	stw	r7,0(sp)
  213c5c:	02135700 	call	213570 <__mulsi3>
  213c60:	a00b883a 	mov	r5,r20
  213c64:	9809883a 	mov	r4,r19
  213c68:	1023883a 	mov	r17,r2
  213c6c:	02135700 	call	213570 <__mulsi3>
  213c70:	a009883a 	mov	r4,r20
  213c74:	b00b883a 	mov	r5,r22
  213c78:	1027883a 	mov	r19,r2
  213c7c:	02135700 	call	213570 <__mulsi3>
  213c80:	b00b883a 	mov	r5,r22
  213c84:	9009883a 	mov	r4,r18
  213c88:	1029883a 	mov	r20,r2
  213c8c:	02135700 	call	213570 <__mulsi3>
  213c90:	8806d43a 	srli	r3,r17,16
  213c94:	14c5883a 	add	r2,r2,r19
  213c98:	d9c00017 	ldw	r7,0(sp)
  213c9c:	1885883a 	add	r2,r3,r2
  213ca0:	14c0022e 	bgeu	r2,r19,213cac <__mulsf3+0x2d4>
  213ca4:	00c00074 	movhi	r3,1
  213ca8:	a0e9883a 	add	r20,r20,r3
  213cac:	1026943a 	slli	r19,r2,16
  213cb0:	8c7fffcc 	andi	r17,r17,65535
  213cb4:	1004d43a 	srli	r2,r2,16
  213cb8:	9c63883a 	add	r17,r19,r17
  213cbc:	882691ba 	slli	r19,r17,6
  213cc0:	1505883a 	add	r2,r2,r20
  213cc4:	8822d6ba 	srli	r17,r17,26
  213cc8:	100891ba 	slli	r4,r2,6
  213ccc:	9826c03a 	cmpne	r19,r19,zero
  213cd0:	9c62b03a 	or	r17,r19,r17
  213cd4:	8926b03a 	or	r19,r17,r4
  213cd8:	9882002c 	andhi	r2,r19,2048
  213cdc:	10000426 	beq	r2,zero,213cf0 <__mulsf3+0x318>
  213ce0:	9804d07a 	srli	r2,r19,1
  213ce4:	9900004c 	andi	r4,r19,1
  213ce8:	3821883a 	mov	r16,r7
  213cec:	1126b03a 	or	r19,r2,r4
  213cf0:	80c01fc4 	addi	r3,r16,127
  213cf4:	00c0210e 	bge	zero,r3,213d7c <__mulsf3+0x3a4>
  213cf8:	988001cc 	andi	r2,r19,7
  213cfc:	10000426 	beq	r2,zero,213d10 <__mulsf3+0x338>
  213d00:	988003cc 	andi	r2,r19,15
  213d04:	01000104 	movi	r4,4
  213d08:	11000126 	beq	r2,r4,213d10 <__mulsf3+0x338>
  213d0c:	9927883a 	add	r19,r19,r4
  213d10:	9882002c 	andhi	r2,r19,2048
  213d14:	10000426 	beq	r2,zero,213d28 <__mulsf3+0x350>
  213d18:	00be0034 	movhi	r2,63488
  213d1c:	10bfffc4 	addi	r2,r2,-1
  213d20:	80c02004 	addi	r3,r16,128
  213d24:	98a6703a 	and	r19,r19,r2
  213d28:	00803f84 	movi	r2,254
  213d2c:	10ff9c16 	blt	r2,r3,213ba0 <_gp+0xffff4720>
  213d30:	980891ba 	slli	r4,r19,6
  213d34:	a829883a 	mov	r20,r21
  213d38:	2008d27a 	srli	r4,r4,9
  213d3c:	003f7906 	br	213b24 <_gp+0xffff46a4>
  213d40:	9080102c 	andhi	r2,r18,64
  213d44:	10000826 	beq	r2,zero,213d68 <__mulsf3+0x390>
  213d48:	9880102c 	andhi	r2,r19,64
  213d4c:	1000061e 	bne	r2,zero,213d68 <__mulsf3+0x390>
  213d50:	00802034 	movhi	r2,128
  213d54:	99001034 	orhi	r4,r19,64
  213d58:	10bfffc4 	addi	r2,r2,-1
  213d5c:	b029883a 	mov	r20,r22
  213d60:	2088703a 	and	r4,r4,r2
  213d64:	003fad06 	br	213c1c <_gp+0xffff479c>
  213d68:	00802034 	movhi	r2,128
  213d6c:	91001034 	orhi	r4,r18,64
  213d70:	10bfffc4 	addi	r2,r2,-1
  213d74:	2088703a 	and	r4,r4,r2
  213d78:	003fa806 	br	213c1c <_gp+0xffff479c>
  213d7c:	00800044 	movi	r2,1
  213d80:	10c7c83a 	sub	r3,r2,r3
  213d84:	008006c4 	movi	r2,27
  213d88:	10ff6316 	blt	r2,r3,213b18 <_gp+0xffff4698>
  213d8c:	00800804 	movi	r2,32
  213d90:	10c5c83a 	sub	r2,r2,r3
  213d94:	9884983a 	sll	r2,r19,r2
  213d98:	98c6d83a 	srl	r3,r19,r3
  213d9c:	1004c03a 	cmpne	r2,r2,zero
  213da0:	1884b03a 	or	r2,r3,r2
  213da4:	10c001cc 	andi	r3,r2,7
  213da8:	18000426 	beq	r3,zero,213dbc <__mulsf3+0x3e4>
  213dac:	10c003cc 	andi	r3,r2,15
  213db0:	01000104 	movi	r4,4
  213db4:	19000126 	beq	r3,r4,213dbc <__mulsf3+0x3e4>
  213db8:	1105883a 	add	r2,r2,r4
  213dbc:	10c1002c 	andhi	r3,r2,1024
  213dc0:	18000626 	beq	r3,zero,213ddc <__mulsf3+0x404>
  213dc4:	a829883a 	mov	r20,r21
  213dc8:	00c00044 	movi	r3,1
  213dcc:	0009883a 	mov	r4,zero
  213dd0:	003f5406 	br	213b24 <_gp+0xffff46a4>
  213dd4:	3821883a 	mov	r16,r7
  213dd8:	003fc506 	br	213cf0 <_gp+0xffff4870>
  213ddc:	100491ba 	slli	r2,r2,6
  213de0:	a829883a 	mov	r20,r21
  213de4:	0007883a 	mov	r3,zero
  213de8:	1008d27a 	srli	r4,r2,9
  213dec:	003f4d06 	br	213b24 <_gp+0xffff46a4>
  213df0:	00802034 	movhi	r2,128
  213df4:	99001034 	orhi	r4,r19,64
  213df8:	10bfffc4 	addi	r2,r2,-1
  213dfc:	a829883a 	mov	r20,r21
  213e00:	2088703a 	and	r4,r4,r2
  213e04:	003f8506 	br	213c1c <_gp+0xffff479c>

00213e08 <__fixsfsi>:
  213e08:	200ad5fa 	srli	r5,r4,23
  213e0c:	00c02034 	movhi	r3,128
  213e10:	18ffffc4 	addi	r3,r3,-1
  213e14:	29403fcc 	andi	r5,r5,255
  213e18:	00801f84 	movi	r2,126
  213e1c:	1906703a 	and	r3,r3,r4
  213e20:	2008d7fa 	srli	r4,r4,31
  213e24:	11400e0e 	bge	r2,r5,213e60 <__fixsfsi+0x58>
  213e28:	00802744 	movi	r2,157
  213e2c:	11400816 	blt	r2,r5,213e50 <__fixsfsi+0x48>
  213e30:	00802544 	movi	r2,149
  213e34:	18c02034 	orhi	r3,r3,128
  213e38:	11400b0e 	bge	r2,r5,213e68 <__fixsfsi+0x60>
  213e3c:	28bfda84 	addi	r2,r5,-150
  213e40:	1884983a 	sll	r2,r3,r2
  213e44:	20000726 	beq	r4,zero,213e64 <__fixsfsi+0x5c>
  213e48:	0085c83a 	sub	r2,zero,r2
  213e4c:	f800283a 	ret
  213e50:	00a00034 	movhi	r2,32768
  213e54:	10bfffc4 	addi	r2,r2,-1
  213e58:	2085883a 	add	r2,r4,r2
  213e5c:	f800283a 	ret
  213e60:	0005883a 	mov	r2,zero
  213e64:	f800283a 	ret
  213e68:	00802584 	movi	r2,150
  213e6c:	1145c83a 	sub	r2,r2,r5
  213e70:	1884d83a 	srl	r2,r3,r2
  213e74:	003ff306 	br	213e44 <_gp+0xffff49c4>

00213e78 <__floatsisf>:
  213e78:	defffd04 	addi	sp,sp,-12
  213e7c:	dfc00215 	stw	ra,8(sp)
  213e80:	dc400115 	stw	r17,4(sp)
  213e84:	dc000015 	stw	r16,0(sp)
  213e88:	20003526 	beq	r4,zero,213f60 <__floatsisf+0xe8>
  213e8c:	2021883a 	mov	r16,r4
  213e90:	2022d7fa 	srli	r17,r4,31
  213e94:	20003616 	blt	r4,zero,213f70 <__floatsisf+0xf8>
  213e98:	8009883a 	mov	r4,r16
  213e9c:	0213f9c0 	call	213f9c <__clzsi2>
  213ea0:	00c02784 	movi	r3,158
  213ea4:	1887c83a 	sub	r3,r3,r2
  213ea8:	01002584 	movi	r4,150
  213eac:	20c01416 	blt	r4,r3,213f00 <__floatsisf+0x88>
  213eb0:	20c9c83a 	sub	r4,r4,r3
  213eb4:	8120983a 	sll	r16,r16,r4
  213eb8:	00802034 	movhi	r2,128
  213ebc:	10bfffc4 	addi	r2,r2,-1
  213ec0:	8809883a 	mov	r4,r17
  213ec4:	80a0703a 	and	r16,r16,r2
  213ec8:	18803fcc 	andi	r2,r3,255
  213ecc:	100695fa 	slli	r3,r2,23
  213ed0:	20803fcc 	andi	r2,r4,255
  213ed4:	100897fa 	slli	r4,r2,31
  213ed8:	00802034 	movhi	r2,128
  213edc:	10bfffc4 	addi	r2,r2,-1
  213ee0:	8084703a 	and	r2,r16,r2
  213ee4:	10c4b03a 	or	r2,r2,r3
  213ee8:	1104b03a 	or	r2,r2,r4
  213eec:	dfc00217 	ldw	ra,8(sp)
  213ef0:	dc400117 	ldw	r17,4(sp)
  213ef4:	dc000017 	ldw	r16,0(sp)
  213ef8:	dec00304 	addi	sp,sp,12
  213efc:	f800283a 	ret
  213f00:	01002644 	movi	r4,153
  213f04:	20c01c16 	blt	r4,r3,213f78 <__floatsisf+0x100>
  213f08:	20c9c83a 	sub	r4,r4,r3
  213f0c:	8120983a 	sll	r16,r16,r4
  213f10:	013f0034 	movhi	r4,64512
  213f14:	213fffc4 	addi	r4,r4,-1
  213f18:	814001cc 	andi	r5,r16,7
  213f1c:	8108703a 	and	r4,r16,r4
  213f20:	28000426 	beq	r5,zero,213f34 <__floatsisf+0xbc>
  213f24:	840003cc 	andi	r16,r16,15
  213f28:	01400104 	movi	r5,4
  213f2c:	81400126 	beq	r16,r5,213f34 <__floatsisf+0xbc>
  213f30:	2149883a 	add	r4,r4,r5
  213f34:	2141002c 	andhi	r5,r4,1024
  213f38:	28000526 	beq	r5,zero,213f50 <__floatsisf+0xd8>
  213f3c:	00c027c4 	movi	r3,159
  213f40:	1887c83a 	sub	r3,r3,r2
  213f44:	00bf0034 	movhi	r2,64512
  213f48:	10bfffc4 	addi	r2,r2,-1
  213f4c:	2088703a 	and	r4,r4,r2
  213f50:	202091ba 	slli	r16,r4,6
  213f54:	8809883a 	mov	r4,r17
  213f58:	8020d27a 	srli	r16,r16,9
  213f5c:	003fda06 	br	213ec8 <_gp+0xffff4a48>
  213f60:	0009883a 	mov	r4,zero
  213f64:	0007883a 	mov	r3,zero
  213f68:	0021883a 	mov	r16,zero
  213f6c:	003fd606 	br	213ec8 <_gp+0xffff4a48>
  213f70:	0121c83a 	sub	r16,zero,r4
  213f74:	003fc806 	br	213e98 <_gp+0xffff4a18>
  213f78:	01002e44 	movi	r4,185
  213f7c:	20c9c83a 	sub	r4,r4,r3
  213f80:	01400144 	movi	r5,5
  213f84:	8108983a 	sll	r4,r16,r4
  213f88:	288bc83a 	sub	r5,r5,r2
  213f8c:	8160d83a 	srl	r16,r16,r5
  213f90:	2008c03a 	cmpne	r4,r4,zero
  213f94:	8120b03a 	or	r16,r16,r4
  213f98:	003fdd06 	br	213f10 <_gp+0xffff4a90>

00213f9c <__clzsi2>:
  213f9c:	00bfffd4 	movui	r2,65535
  213fa0:	11000536 	bltu	r2,r4,213fb8 <__clzsi2+0x1c>
  213fa4:	00803fc4 	movi	r2,255
  213fa8:	11000f36 	bltu	r2,r4,213fe8 <__clzsi2+0x4c>
  213fac:	00800804 	movi	r2,32
  213fb0:	0007883a 	mov	r3,zero
  213fb4:	00000506 	br	213fcc <__clzsi2+0x30>
  213fb8:	00804034 	movhi	r2,256
  213fbc:	10bfffc4 	addi	r2,r2,-1
  213fc0:	11000c2e 	bgeu	r2,r4,213ff4 <__clzsi2+0x58>
  213fc4:	00800204 	movi	r2,8
  213fc8:	00c00604 	movi	r3,24
  213fcc:	20c8d83a 	srl	r4,r4,r3
  213fd0:	00c00874 	movhi	r3,33
  213fd4:	18dbe144 	addi	r3,r3,28549
  213fd8:	1909883a 	add	r4,r3,r4
  213fdc:	20c00003 	ldbu	r3,0(r4)
  213fe0:	10c5c83a 	sub	r2,r2,r3
  213fe4:	f800283a 	ret
  213fe8:	00800604 	movi	r2,24
  213fec:	00c00204 	movi	r3,8
  213ff0:	003ff606 	br	213fcc <_gp+0xffff4b4c>
  213ff4:	00800404 	movi	r2,16
  213ff8:	1007883a 	mov	r3,r2
  213ffc:	003ff306 	br	213fcc <_gp+0xffff4b4c>

00214000 <memcpy>:
  214000:	2005883a 	mov	r2,r4
  214004:	2007883a 	mov	r3,r4
  214008:	218d883a 	add	r6,r4,r6
  21400c:	19800526 	beq	r3,r6,214024 <memcpy+0x24>
  214010:	29000003 	ldbu	r4,0(r5)
  214014:	18c00044 	addi	r3,r3,1
  214018:	29400044 	addi	r5,r5,1
  21401c:	193fffc5 	stb	r4,-1(r3)
  214020:	003ffa06 	br	21400c <_gp+0xffff4b8c>
  214024:	f800283a 	ret

00214028 <memset>:
  214028:	2005883a 	mov	r2,r4
  21402c:	2007883a 	mov	r3,r4
  214030:	218d883a 	add	r6,r4,r6
  214034:	19800326 	beq	r3,r6,214044 <memset+0x1c>
  214038:	19400005 	stb	r5,0(r3)
  21403c:	18c00044 	addi	r3,r3,1
  214040:	003ffc06 	br	214034 <_gp+0xffff4bb4>
  214044:	f800283a 	ret

00214048 <_printf_r>:
  214048:	defffd04 	addi	sp,sp,-12
  21404c:	dfc00015 	stw	ra,0(sp)
  214050:	d9800115 	stw	r6,4(sp)
  214054:	d9c00215 	stw	r7,8(sp)
  214058:	20c00217 	ldw	r3,8(r4)
  21405c:	01800874 	movhi	r6,33
  214060:	3191cd04 	addi	r6,r6,18228
  214064:	19800115 	stw	r6,4(r3)
  214068:	280d883a 	mov	r6,r5
  21406c:	21400217 	ldw	r5,8(r4)
  214070:	d9c00104 	addi	r7,sp,4
  214074:	02141ec0 	call	2141ec <___vfprintf_internal_r>
  214078:	dfc00017 	ldw	ra,0(sp)
  21407c:	dec00304 	addi	sp,sp,12
  214080:	f800283a 	ret

00214084 <printf>:
  214084:	defffc04 	addi	sp,sp,-16
  214088:	dfc00015 	stw	ra,0(sp)
  21408c:	d9400115 	stw	r5,4(sp)
  214090:	d9800215 	stw	r6,8(sp)
  214094:	d9c00315 	stw	r7,12(sp)
  214098:	00800874 	movhi	r2,33
  21409c:	109d2804 	addi	r2,r2,29856
  2140a0:	10800017 	ldw	r2,0(r2)
  2140a4:	01400874 	movhi	r5,33
  2140a8:	2951cd04 	addi	r5,r5,18228
  2140ac:	10c00217 	ldw	r3,8(r2)
  2140b0:	d9800104 	addi	r6,sp,4
  2140b4:	19400115 	stw	r5,4(r3)
  2140b8:	200b883a 	mov	r5,r4
  2140bc:	11000217 	ldw	r4,8(r2)
  2140c0:	02147180 	call	214718 <__vfprintf_internal>
  2140c4:	dfc00017 	ldw	ra,0(sp)
  2140c8:	dec00404 	addi	sp,sp,16
  2140cc:	f800283a 	ret

002140d0 <_puts_r>:
  2140d0:	defffd04 	addi	sp,sp,-12
  2140d4:	dc000015 	stw	r16,0(sp)
  2140d8:	2021883a 	mov	r16,r4
  2140dc:	2809883a 	mov	r4,r5
  2140e0:	dfc00215 	stw	ra,8(sp)
  2140e4:	dc400115 	stw	r17,4(sp)
  2140e8:	2823883a 	mov	r17,r5
  2140ec:	02141640 	call	214164 <strlen>
  2140f0:	81400217 	ldw	r5,8(r16)
  2140f4:	01000874 	movhi	r4,33
  2140f8:	2111cd04 	addi	r4,r4,18228
  2140fc:	29000115 	stw	r4,4(r5)
  214100:	100f883a 	mov	r7,r2
  214104:	880d883a 	mov	r6,r17
  214108:	8009883a 	mov	r4,r16
  21410c:	02147340 	call	214734 <__sfvwrite_small_dev>
  214110:	00ffffc4 	movi	r3,-1
  214114:	10c00926 	beq	r2,r3,21413c <_puts_r+0x6c>
  214118:	81400217 	ldw	r5,8(r16)
  21411c:	01800874 	movhi	r6,33
  214120:	01c00044 	movi	r7,1
  214124:	28800117 	ldw	r2,4(r5)
  214128:	319c2204 	addi	r6,r6,28808
  21412c:	8009883a 	mov	r4,r16
  214130:	103ee83a 	callr	r2
  214134:	10bfffe0 	cmpeqi	r2,r2,-1
  214138:	0085c83a 	sub	r2,zero,r2
  21413c:	dfc00217 	ldw	ra,8(sp)
  214140:	dc400117 	ldw	r17,4(sp)
  214144:	dc000017 	ldw	r16,0(sp)
  214148:	dec00304 	addi	sp,sp,12
  21414c:	f800283a 	ret

00214150 <puts>:
  214150:	00800874 	movhi	r2,33
  214154:	109d2804 	addi	r2,r2,29856
  214158:	200b883a 	mov	r5,r4
  21415c:	11000017 	ldw	r4,0(r2)
  214160:	02140d01 	jmpi	2140d0 <_puts_r>

00214164 <strlen>:
  214164:	2005883a 	mov	r2,r4
  214168:	10c00007 	ldb	r3,0(r2)
  21416c:	18000226 	beq	r3,zero,214178 <strlen+0x14>
  214170:	10800044 	addi	r2,r2,1
  214174:	003ffc06 	br	214168 <_gp+0xffff4ce8>
  214178:	1105c83a 	sub	r2,r2,r4
  21417c:	f800283a 	ret

00214180 <print_repeat>:
  214180:	defffb04 	addi	sp,sp,-20
  214184:	dc800315 	stw	r18,12(sp)
  214188:	dc400215 	stw	r17,8(sp)
  21418c:	dc000115 	stw	r16,4(sp)
  214190:	dfc00415 	stw	ra,16(sp)
  214194:	2025883a 	mov	r18,r4
  214198:	2823883a 	mov	r17,r5
  21419c:	d9800005 	stb	r6,0(sp)
  2141a0:	3821883a 	mov	r16,r7
  2141a4:	04000a0e 	bge	zero,r16,2141d0 <print_repeat+0x50>
  2141a8:	88800117 	ldw	r2,4(r17)
  2141ac:	01c00044 	movi	r7,1
  2141b0:	d80d883a 	mov	r6,sp
  2141b4:	880b883a 	mov	r5,r17
  2141b8:	9009883a 	mov	r4,r18
  2141bc:	103ee83a 	callr	r2
  2141c0:	843fffc4 	addi	r16,r16,-1
  2141c4:	103ff726 	beq	r2,zero,2141a4 <_gp+0xffff4d24>
  2141c8:	00bfffc4 	movi	r2,-1
  2141cc:	00000106 	br	2141d4 <print_repeat+0x54>
  2141d0:	0005883a 	mov	r2,zero
  2141d4:	dfc00417 	ldw	ra,16(sp)
  2141d8:	dc800317 	ldw	r18,12(sp)
  2141dc:	dc400217 	ldw	r17,8(sp)
  2141e0:	dc000117 	ldw	r16,4(sp)
  2141e4:	dec00504 	addi	sp,sp,20
  2141e8:	f800283a 	ret

002141ec <___vfprintf_internal_r>:
  2141ec:	deffe504 	addi	sp,sp,-108
  2141f0:	d8c00804 	addi	r3,sp,32
  2141f4:	ddc01815 	stw	r23,96(sp)
  2141f8:	dd801715 	stw	r22,92(sp)
  2141fc:	dd401615 	stw	r21,88(sp)
  214200:	dd001515 	stw	r20,84(sp)
  214204:	dcc01415 	stw	r19,80(sp)
  214208:	dc801315 	stw	r18,76(sp)
  21420c:	dc401215 	stw	r17,72(sp)
  214210:	dc001115 	stw	r16,68(sp)
  214214:	dfc01a15 	stw	ra,104(sp)
  214218:	df001915 	stw	fp,100(sp)
  21421c:	2029883a 	mov	r20,r4
  214220:	2823883a 	mov	r17,r5
  214224:	382d883a 	mov	r22,r7
  214228:	d9800f15 	stw	r6,60(sp)
  21422c:	0021883a 	mov	r16,zero
  214230:	d8000e15 	stw	zero,56(sp)
  214234:	d8000a15 	stw	zero,40(sp)
  214238:	002b883a 	mov	r21,zero
  21423c:	0027883a 	mov	r19,zero
  214240:	0025883a 	mov	r18,zero
  214244:	d8000c15 	stw	zero,48(sp)
  214248:	d8000b15 	stw	zero,44(sp)
  21424c:	002f883a 	mov	r23,zero
  214250:	d8c00915 	stw	r3,36(sp)
  214254:	d8c00f17 	ldw	r3,60(sp)
  214258:	19000003 	ldbu	r4,0(r3)
  21425c:	20803fcc 	andi	r2,r4,255
  214260:	1080201c 	xori	r2,r2,128
  214264:	10bfe004 	addi	r2,r2,-128
  214268:	10011e26 	beq	r2,zero,2146e4 <___vfprintf_internal_r+0x4f8>
  21426c:	00c00044 	movi	r3,1
  214270:	b8c01426 	beq	r23,r3,2142c4 <___vfprintf_internal_r+0xd8>
  214274:	1dc00216 	blt	r3,r23,214280 <___vfprintf_internal_r+0x94>
  214278:	b8000626 	beq	r23,zero,214294 <___vfprintf_internal_r+0xa8>
  21427c:	00011506 	br	2146d4 <___vfprintf_internal_r+0x4e8>
  214280:	01400084 	movi	r5,2
  214284:	b9401d26 	beq	r23,r5,2142fc <___vfprintf_internal_r+0x110>
  214288:	014000c4 	movi	r5,3
  21428c:	b9402b26 	beq	r23,r5,21433c <___vfprintf_internal_r+0x150>
  214290:	00011006 	br	2146d4 <___vfprintf_internal_r+0x4e8>
  214294:	01400944 	movi	r5,37
  214298:	1140fc26 	beq	r2,r5,21468c <___vfprintf_internal_r+0x4a0>
  21429c:	88800117 	ldw	r2,4(r17)
  2142a0:	d9000005 	stb	r4,0(sp)
  2142a4:	01c00044 	movi	r7,1
  2142a8:	d80d883a 	mov	r6,sp
  2142ac:	880b883a 	mov	r5,r17
  2142b0:	a009883a 	mov	r4,r20
  2142b4:	103ee83a 	callr	r2
  2142b8:	1000d81e 	bne	r2,zero,21461c <___vfprintf_internal_r+0x430>
  2142bc:	84000044 	addi	r16,r16,1
  2142c0:	00010406 	br	2146d4 <___vfprintf_internal_r+0x4e8>
  2142c4:	01400c04 	movi	r5,48
  2142c8:	1140fa26 	beq	r2,r5,2146b4 <___vfprintf_internal_r+0x4c8>
  2142cc:	01400944 	movi	r5,37
  2142d0:	11400a1e 	bne	r2,r5,2142fc <___vfprintf_internal_r+0x110>
  2142d4:	d8800005 	stb	r2,0(sp)
  2142d8:	88800117 	ldw	r2,4(r17)
  2142dc:	b80f883a 	mov	r7,r23
  2142e0:	d80d883a 	mov	r6,sp
  2142e4:	880b883a 	mov	r5,r17
  2142e8:	a009883a 	mov	r4,r20
  2142ec:	103ee83a 	callr	r2
  2142f0:	1000ca1e 	bne	r2,zero,21461c <___vfprintf_internal_r+0x430>
  2142f4:	84000044 	addi	r16,r16,1
  2142f8:	0000f506 	br	2146d0 <___vfprintf_internal_r+0x4e4>
  2142fc:	25fff404 	addi	r23,r4,-48
  214300:	bdc03fcc 	andi	r23,r23,255
  214304:	00c00244 	movi	r3,9
  214308:	1dc00936 	bltu	r3,r23,214330 <___vfprintf_internal_r+0x144>
  21430c:	00bfffc4 	movi	r2,-1
  214310:	90800426 	beq	r18,r2,214324 <___vfprintf_internal_r+0x138>
  214314:	01400284 	movi	r5,10
  214318:	9009883a 	mov	r4,r18
  21431c:	02135700 	call	213570 <__mulsi3>
  214320:	00000106 	br	214328 <___vfprintf_internal_r+0x13c>
  214324:	0005883a 	mov	r2,zero
  214328:	b8a5883a 	add	r18,r23,r2
  21432c:	0000e206 	br	2146b8 <___vfprintf_internal_r+0x4cc>
  214330:	01400b84 	movi	r5,46
  214334:	1140e426 	beq	r2,r5,2146c8 <___vfprintf_internal_r+0x4dc>
  214338:	05c00084 	movi	r23,2
  21433c:	213ff404 	addi	r4,r4,-48
  214340:	27003fcc 	andi	fp,r4,255
  214344:	00c00244 	movi	r3,9
  214348:	1f000936 	bltu	r3,fp,214370 <___vfprintf_internal_r+0x184>
  21434c:	00bfffc4 	movi	r2,-1
  214350:	98800426 	beq	r19,r2,214364 <___vfprintf_internal_r+0x178>
  214354:	01400284 	movi	r5,10
  214358:	9809883a 	mov	r4,r19
  21435c:	02135700 	call	213570 <__mulsi3>
  214360:	00000106 	br	214368 <___vfprintf_internal_r+0x17c>
  214364:	0005883a 	mov	r2,zero
  214368:	e0a7883a 	add	r19,fp,r2
  21436c:	0000d906 	br	2146d4 <___vfprintf_internal_r+0x4e8>
  214370:	00c01b04 	movi	r3,108
  214374:	10c0d226 	beq	r2,r3,2146c0 <___vfprintf_internal_r+0x4d4>
  214378:	013fffc4 	movi	r4,-1
  21437c:	99000226 	beq	r19,r4,214388 <___vfprintf_internal_r+0x19c>
  214380:	d8000b15 	stw	zero,44(sp)
  214384:	00000106 	br	21438c <___vfprintf_internal_r+0x1a0>
  214388:	04c00044 	movi	r19,1
  21438c:	01001a44 	movi	r4,105
  214390:	11001626 	beq	r2,r4,2143ec <___vfprintf_internal_r+0x200>
  214394:	20800916 	blt	r4,r2,2143bc <___vfprintf_internal_r+0x1d0>
  214398:	010018c4 	movi	r4,99
  21439c:	11008826 	beq	r2,r4,2145c0 <___vfprintf_internal_r+0x3d4>
  2143a0:	01001904 	movi	r4,100
  2143a4:	11001126 	beq	r2,r4,2143ec <___vfprintf_internal_r+0x200>
  2143a8:	01001604 	movi	r4,88
  2143ac:	1100c81e 	bne	r2,r4,2146d0 <___vfprintf_internal_r+0x4e4>
  2143b0:	00c00044 	movi	r3,1
  2143b4:	d8c00e15 	stw	r3,56(sp)
  2143b8:	00001506 	br	214410 <___vfprintf_internal_r+0x224>
  2143bc:	01001cc4 	movi	r4,115
  2143c0:	11009826 	beq	r2,r4,214624 <___vfprintf_internal_r+0x438>
  2143c4:	20800416 	blt	r4,r2,2143d8 <___vfprintf_internal_r+0x1ec>
  2143c8:	01001bc4 	movi	r4,111
  2143cc:	1100c01e 	bne	r2,r4,2146d0 <___vfprintf_internal_r+0x4e4>
  2143d0:	05400204 	movi	r21,8
  2143d4:	00000f06 	br	214414 <___vfprintf_internal_r+0x228>
  2143d8:	01001d44 	movi	r4,117
  2143dc:	11000d26 	beq	r2,r4,214414 <___vfprintf_internal_r+0x228>
  2143e0:	01001e04 	movi	r4,120
  2143e4:	11000a26 	beq	r2,r4,214410 <___vfprintf_internal_r+0x224>
  2143e8:	0000b906 	br	2146d0 <___vfprintf_internal_r+0x4e4>
  2143ec:	d8c00a17 	ldw	r3,40(sp)
  2143f0:	b7000104 	addi	fp,r22,4
  2143f4:	18000726 	beq	r3,zero,214414 <___vfprintf_internal_r+0x228>
  2143f8:	df000d15 	stw	fp,52(sp)
  2143fc:	b5c00017 	ldw	r23,0(r22)
  214400:	b800080e 	bge	r23,zero,214424 <___vfprintf_internal_r+0x238>
  214404:	05efc83a 	sub	r23,zero,r23
  214408:	02400044 	movi	r9,1
  21440c:	00000606 	br	214428 <___vfprintf_internal_r+0x23c>
  214410:	05400404 	movi	r21,16
  214414:	b0c00104 	addi	r3,r22,4
  214418:	d8c00d15 	stw	r3,52(sp)
  21441c:	b5c00017 	ldw	r23,0(r22)
  214420:	d8000a15 	stw	zero,40(sp)
  214424:	0013883a 	mov	r9,zero
  214428:	d839883a 	mov	fp,sp
  21442c:	b8001726 	beq	r23,zero,21448c <___vfprintf_internal_r+0x2a0>
  214430:	a80b883a 	mov	r5,r21
  214434:	b809883a 	mov	r4,r23
  214438:	da401015 	stw	r9,64(sp)
  21443c:	02134b40 	call	2134b4 <__udivsi3>
  214440:	a80b883a 	mov	r5,r21
  214444:	1009883a 	mov	r4,r2
  214448:	102d883a 	mov	r22,r2
  21444c:	02135700 	call	213570 <__mulsi3>
  214450:	b885c83a 	sub	r2,r23,r2
  214454:	00c00244 	movi	r3,9
  214458:	da401017 	ldw	r9,64(sp)
  21445c:	18800216 	blt	r3,r2,214468 <___vfprintf_internal_r+0x27c>
  214460:	10800c04 	addi	r2,r2,48
  214464:	00000506 	br	21447c <___vfprintf_internal_r+0x290>
  214468:	d8c00e17 	ldw	r3,56(sp)
  21446c:	18000226 	beq	r3,zero,214478 <___vfprintf_internal_r+0x28c>
  214470:	10800dc4 	addi	r2,r2,55
  214474:	00000106 	br	21447c <___vfprintf_internal_r+0x290>
  214478:	108015c4 	addi	r2,r2,87
  21447c:	e0800005 	stb	r2,0(fp)
  214480:	b02f883a 	mov	r23,r22
  214484:	e7000044 	addi	fp,fp,1
  214488:	003fe806 	br	21442c <_gp+0xffff4fac>
  21448c:	e6efc83a 	sub	r23,fp,sp
  214490:	9dc5c83a 	sub	r2,r19,r23
  214494:	0080090e 	bge	zero,r2,2144bc <___vfprintf_internal_r+0x2d0>
  214498:	e085883a 	add	r2,fp,r2
  21449c:	01400c04 	movi	r5,48
  2144a0:	d8c00917 	ldw	r3,36(sp)
  2144a4:	e009883a 	mov	r4,fp
  2144a8:	e0c0032e 	bgeu	fp,r3,2144b8 <___vfprintf_internal_r+0x2cc>
  2144ac:	e7000044 	addi	fp,fp,1
  2144b0:	21400005 	stb	r5,0(r4)
  2144b4:	e0bffa1e 	bne	fp,r2,2144a0 <_gp+0xffff5020>
  2144b8:	e6efc83a 	sub	r23,fp,sp
  2144bc:	d8c00b17 	ldw	r3,44(sp)
  2144c0:	4dd1883a 	add	r8,r9,r23
  2144c4:	922dc83a 	sub	r22,r18,r8
  2144c8:	18001626 	beq	r3,zero,214524 <___vfprintf_internal_r+0x338>
  2144cc:	48000a26 	beq	r9,zero,2144f8 <___vfprintf_internal_r+0x30c>
  2144d0:	00800b44 	movi	r2,45
  2144d4:	d8800805 	stb	r2,32(sp)
  2144d8:	88800117 	ldw	r2,4(r17)
  2144dc:	01c00044 	movi	r7,1
  2144e0:	d9800804 	addi	r6,sp,32
  2144e4:	880b883a 	mov	r5,r17
  2144e8:	a009883a 	mov	r4,r20
  2144ec:	103ee83a 	callr	r2
  2144f0:	10004a1e 	bne	r2,zero,21461c <___vfprintf_internal_r+0x430>
  2144f4:	84000044 	addi	r16,r16,1
  2144f8:	0580070e 	bge	zero,r22,214518 <___vfprintf_internal_r+0x32c>
  2144fc:	b00f883a 	mov	r7,r22
  214500:	01800c04 	movi	r6,48
  214504:	880b883a 	mov	r5,r17
  214508:	a009883a 	mov	r4,r20
  21450c:	02141800 	call	214180 <print_repeat>
  214510:	1000421e 	bne	r2,zero,21461c <___vfprintf_internal_r+0x430>
  214514:	85a1883a 	add	r16,r16,r22
  214518:	e02d883a 	mov	r22,fp
  21451c:	bf2fc83a 	sub	r23,r23,fp
  214520:	00002006 	br	2145a4 <___vfprintf_internal_r+0x3b8>
  214524:	0580090e 	bge	zero,r22,21454c <___vfprintf_internal_r+0x360>
  214528:	b00f883a 	mov	r7,r22
  21452c:	01800804 	movi	r6,32
  214530:	880b883a 	mov	r5,r17
  214534:	a009883a 	mov	r4,r20
  214538:	da401015 	stw	r9,64(sp)
  21453c:	02141800 	call	214180 <print_repeat>
  214540:	da401017 	ldw	r9,64(sp)
  214544:	1000351e 	bne	r2,zero,21461c <___vfprintf_internal_r+0x430>
  214548:	85a1883a 	add	r16,r16,r22
  21454c:	483ff226 	beq	r9,zero,214518 <_gp+0xffff5098>
  214550:	00800b44 	movi	r2,45
  214554:	d8800805 	stb	r2,32(sp)
  214558:	88800117 	ldw	r2,4(r17)
  21455c:	01c00044 	movi	r7,1
  214560:	d9800804 	addi	r6,sp,32
  214564:	880b883a 	mov	r5,r17
  214568:	a009883a 	mov	r4,r20
  21456c:	103ee83a 	callr	r2
  214570:	10002a1e 	bne	r2,zero,21461c <___vfprintf_internal_r+0x430>
  214574:	84000044 	addi	r16,r16,1
  214578:	003fe706 	br	214518 <_gp+0xffff5098>
  21457c:	b5bfffc4 	addi	r22,r22,-1
  214580:	b0800003 	ldbu	r2,0(r22)
  214584:	01c00044 	movi	r7,1
  214588:	d9800804 	addi	r6,sp,32
  21458c:	d8800805 	stb	r2,32(sp)
  214590:	88800117 	ldw	r2,4(r17)
  214594:	880b883a 	mov	r5,r17
  214598:	a009883a 	mov	r4,r20
  21459c:	103ee83a 	callr	r2
  2145a0:	10001e1e 	bne	r2,zero,21461c <___vfprintf_internal_r+0x430>
  2145a4:	8585c83a 	sub	r2,r16,r22
  2145a8:	b5c9883a 	add	r4,r22,r23
  2145ac:	e085883a 	add	r2,fp,r2
  2145b0:	013ff216 	blt	zero,r4,21457c <_gp+0xffff50fc>
  2145b4:	1021883a 	mov	r16,r2
  2145b8:	dd800d17 	ldw	r22,52(sp)
  2145bc:	00004406 	br	2146d0 <___vfprintf_internal_r+0x4e4>
  2145c0:	00800044 	movi	r2,1
  2145c4:	1480080e 	bge	r2,r18,2145e8 <___vfprintf_internal_r+0x3fc>
  2145c8:	95ffffc4 	addi	r23,r18,-1
  2145cc:	b80f883a 	mov	r7,r23
  2145d0:	01800804 	movi	r6,32
  2145d4:	880b883a 	mov	r5,r17
  2145d8:	a009883a 	mov	r4,r20
  2145dc:	02141800 	call	214180 <print_repeat>
  2145e0:	10000e1e 	bne	r2,zero,21461c <___vfprintf_internal_r+0x430>
  2145e4:	85e1883a 	add	r16,r16,r23
  2145e8:	b0800017 	ldw	r2,0(r22)
  2145ec:	01c00044 	movi	r7,1
  2145f0:	d80d883a 	mov	r6,sp
  2145f4:	d8800005 	stb	r2,0(sp)
  2145f8:	88800117 	ldw	r2,4(r17)
  2145fc:	880b883a 	mov	r5,r17
  214600:	a009883a 	mov	r4,r20
  214604:	b5c00104 	addi	r23,r22,4
  214608:	103ee83a 	callr	r2
  21460c:	1000031e 	bne	r2,zero,21461c <___vfprintf_internal_r+0x430>
  214610:	84000044 	addi	r16,r16,1
  214614:	b82d883a 	mov	r22,r23
  214618:	00002d06 	br	2146d0 <___vfprintf_internal_r+0x4e4>
  21461c:	00bfffc4 	movi	r2,-1
  214620:	00003106 	br	2146e8 <___vfprintf_internal_r+0x4fc>
  214624:	b5c00017 	ldw	r23,0(r22)
  214628:	b7000104 	addi	fp,r22,4
  21462c:	b809883a 	mov	r4,r23
  214630:	02141640 	call	214164 <strlen>
  214634:	9091c83a 	sub	r8,r18,r2
  214638:	102d883a 	mov	r22,r2
  21463c:	0200090e 	bge	zero,r8,214664 <___vfprintf_internal_r+0x478>
  214640:	400f883a 	mov	r7,r8
  214644:	01800804 	movi	r6,32
  214648:	880b883a 	mov	r5,r17
  21464c:	a009883a 	mov	r4,r20
  214650:	da001015 	stw	r8,64(sp)
  214654:	02141800 	call	214180 <print_repeat>
  214658:	da001017 	ldw	r8,64(sp)
  21465c:	103fef1e 	bne	r2,zero,21461c <_gp+0xffff519c>
  214660:	8221883a 	add	r16,r16,r8
  214664:	88800117 	ldw	r2,4(r17)
  214668:	b00f883a 	mov	r7,r22
  21466c:	b80d883a 	mov	r6,r23
  214670:	880b883a 	mov	r5,r17
  214674:	a009883a 	mov	r4,r20
  214678:	103ee83a 	callr	r2
  21467c:	103fe71e 	bne	r2,zero,21461c <_gp+0xffff519c>
  214680:	85a1883a 	add	r16,r16,r22
  214684:	e02d883a 	mov	r22,fp
  214688:	00001106 	br	2146d0 <___vfprintf_internal_r+0x4e4>
  21468c:	00c00044 	movi	r3,1
  214690:	04ffffc4 	movi	r19,-1
  214694:	d8000e15 	stw	zero,56(sp)
  214698:	d8c00a15 	stw	r3,40(sp)
  21469c:	05400284 	movi	r21,10
  2146a0:	9825883a 	mov	r18,r19
  2146a4:	d8000c15 	stw	zero,48(sp)
  2146a8:	d8000b15 	stw	zero,44(sp)
  2146ac:	182f883a 	mov	r23,r3
  2146b0:	00000806 	br	2146d4 <___vfprintf_internal_r+0x4e8>
  2146b4:	ddc00b15 	stw	r23,44(sp)
  2146b8:	05c00084 	movi	r23,2
  2146bc:	00000506 	br	2146d4 <___vfprintf_internal_r+0x4e8>
  2146c0:	00c00044 	movi	r3,1
  2146c4:	d8c00c15 	stw	r3,48(sp)
  2146c8:	05c000c4 	movi	r23,3
  2146cc:	00000106 	br	2146d4 <___vfprintf_internal_r+0x4e8>
  2146d0:	002f883a 	mov	r23,zero
  2146d4:	d8c00f17 	ldw	r3,60(sp)
  2146d8:	18c00044 	addi	r3,r3,1
  2146dc:	d8c00f15 	stw	r3,60(sp)
  2146e0:	003edc06 	br	214254 <_gp+0xffff4dd4>
  2146e4:	8005883a 	mov	r2,r16
  2146e8:	dfc01a17 	ldw	ra,104(sp)
  2146ec:	df001917 	ldw	fp,100(sp)
  2146f0:	ddc01817 	ldw	r23,96(sp)
  2146f4:	dd801717 	ldw	r22,92(sp)
  2146f8:	dd401617 	ldw	r21,88(sp)
  2146fc:	dd001517 	ldw	r20,84(sp)
  214700:	dcc01417 	ldw	r19,80(sp)
  214704:	dc801317 	ldw	r18,76(sp)
  214708:	dc401217 	ldw	r17,72(sp)
  21470c:	dc001117 	ldw	r16,68(sp)
  214710:	dec01b04 	addi	sp,sp,108
  214714:	f800283a 	ret

00214718 <__vfprintf_internal>:
  214718:	00800874 	movhi	r2,33
  21471c:	109d2804 	addi	r2,r2,29856
  214720:	300f883a 	mov	r7,r6
  214724:	280d883a 	mov	r6,r5
  214728:	200b883a 	mov	r5,r4
  21472c:	11000017 	ldw	r4,0(r2)
  214730:	02141ec1 	jmpi	2141ec <___vfprintf_internal_r>

00214734 <__sfvwrite_small_dev>:
  214734:	2880000b 	ldhu	r2,0(r5)
  214738:	1080020c 	andi	r2,r2,8
  21473c:	10002126 	beq	r2,zero,2147c4 <__sfvwrite_small_dev+0x90>
  214740:	2880008f 	ldh	r2,2(r5)
  214744:	defffa04 	addi	sp,sp,-24
  214748:	dc000015 	stw	r16,0(sp)
  21474c:	dfc00515 	stw	ra,20(sp)
  214750:	dd000415 	stw	r20,16(sp)
  214754:	dcc00315 	stw	r19,12(sp)
  214758:	dc800215 	stw	r18,8(sp)
  21475c:	dc400115 	stw	r17,4(sp)
  214760:	2821883a 	mov	r16,r5
  214764:	10001216 	blt	r2,zero,2147b0 <__sfvwrite_small_dev+0x7c>
  214768:	2027883a 	mov	r19,r4
  21476c:	3025883a 	mov	r18,r6
  214770:	3823883a 	mov	r17,r7
  214774:	05010004 	movi	r20,1024
  214778:	04400b0e 	bge	zero,r17,2147a8 <__sfvwrite_small_dev+0x74>
  21477c:	880f883a 	mov	r7,r17
  214780:	a440010e 	bge	r20,r17,214788 <__sfvwrite_small_dev+0x54>
  214784:	01c10004 	movi	r7,1024
  214788:	8140008f 	ldh	r5,2(r16)
  21478c:	900d883a 	mov	r6,r18
  214790:	9809883a 	mov	r4,r19
  214794:	02147ec0 	call	2147ec <_write_r>
  214798:	0080050e 	bge	zero,r2,2147b0 <__sfvwrite_small_dev+0x7c>
  21479c:	88a3c83a 	sub	r17,r17,r2
  2147a0:	90a5883a 	add	r18,r18,r2
  2147a4:	003ff406 	br	214778 <_gp+0xffff52f8>
  2147a8:	0005883a 	mov	r2,zero
  2147ac:	00000706 	br	2147cc <__sfvwrite_small_dev+0x98>
  2147b0:	8080000b 	ldhu	r2,0(r16)
  2147b4:	10801014 	ori	r2,r2,64
  2147b8:	8080000d 	sth	r2,0(r16)
  2147bc:	00bfffc4 	movi	r2,-1
  2147c0:	00000206 	br	2147cc <__sfvwrite_small_dev+0x98>
  2147c4:	00bfffc4 	movi	r2,-1
  2147c8:	f800283a 	ret
  2147cc:	dfc00517 	ldw	ra,20(sp)
  2147d0:	dd000417 	ldw	r20,16(sp)
  2147d4:	dcc00317 	ldw	r19,12(sp)
  2147d8:	dc800217 	ldw	r18,8(sp)
  2147dc:	dc400117 	ldw	r17,4(sp)
  2147e0:	dc000017 	ldw	r16,0(sp)
  2147e4:	dec00604 	addi	sp,sp,24
  2147e8:	f800283a 	ret

002147ec <_write_r>:
  2147ec:	defffd04 	addi	sp,sp,-12
  2147f0:	dc000015 	stw	r16,0(sp)
  2147f4:	04000874 	movhi	r16,33
  2147f8:	dc400115 	stw	r17,4(sp)
  2147fc:	841d4704 	addi	r16,r16,29980
  214800:	2023883a 	mov	r17,r4
  214804:	2809883a 	mov	r4,r5
  214808:	300b883a 	mov	r5,r6
  21480c:	380d883a 	mov	r6,r7
  214810:	dfc00215 	stw	ra,8(sp)
  214814:	80000015 	stw	zero,0(r16)
  214818:	021492c0 	call	21492c <write>
  21481c:	00ffffc4 	movi	r3,-1
  214820:	10c0031e 	bne	r2,r3,214830 <_write_r+0x44>
  214824:	80c00017 	ldw	r3,0(r16)
  214828:	18000126 	beq	r3,zero,214830 <_write_r+0x44>
  21482c:	88c00015 	stw	r3,0(r17)
  214830:	dfc00217 	ldw	ra,8(sp)
  214834:	dc400117 	ldw	r17,4(sp)
  214838:	dc000017 	ldw	r16,0(sp)
  21483c:	dec00304 	addi	sp,sp,12
  214840:	f800283a 	ret

00214844 <alt_main>:
  214844:	defffd04 	addi	sp,sp,-12
  214848:	dfc00215 	stw	ra,8(sp)
  21484c:	df000115 	stw	fp,4(sp)
  214850:	df000104 	addi	fp,sp,4
  214854:	0009883a 	mov	r4,zero
  214858:	0214a600 	call	214a60 <alt_irq_init>
  21485c:	0001883a 	nop
  214860:	0214a980 	call	214a98 <alt_sys_init>
  214864:	01800874 	movhi	r6,33
  214868:	319c2304 	addi	r6,r6,28812
  21486c:	01400874 	movhi	r5,33
  214870:	295c2304 	addi	r5,r5,28812
  214874:	01000874 	movhi	r4,33
  214878:	211c2304 	addi	r4,r4,28812
  21487c:	02165040 	call	216504 <alt_io_redirect>
  214880:	02162a40 	call	2162a4 <_do_ctors>
  214884:	01000874 	movhi	r4,33
  214888:	2118c104 	addi	r4,r4,25348
  21488c:	0216b080 	call	216b08 <atexit>
  214890:	d0a02817 	ldw	r2,-32608(gp)
  214894:	d0e02917 	ldw	r3,-32604(gp)
  214898:	d1202a17 	ldw	r4,-32600(gp)
  21489c:	200d883a 	mov	r6,r4
  2148a0:	180b883a 	mov	r5,r3
  2148a4:	1009883a 	mov	r4,r2
  2148a8:	02107d80 	call	2107d8 <main>
  2148ac:	e0bfff15 	stw	r2,-4(fp)
  2148b0:	01000044 	movi	r4,1
  2148b4:	02160980 	call	216098 <close>
  2148b8:	e13fff17 	ldw	r4,-4(fp)
  2148bc:	0216b1c0 	call	216b1c <exit>

002148c0 <usleep>:
  2148c0:	defffd04 	addi	sp,sp,-12
  2148c4:	dfc00215 	stw	ra,8(sp)
  2148c8:	df000115 	stw	fp,4(sp)
  2148cc:	df000104 	addi	fp,sp,4
  2148d0:	e13fff15 	stw	r4,-4(fp)
  2148d4:	e13fff17 	ldw	r4,-4(fp)
  2148d8:	0215f040 	call	215f04 <alt_busy_sleep>
  2148dc:	e037883a 	mov	sp,fp
  2148e0:	dfc00117 	ldw	ra,4(sp)
  2148e4:	df000017 	ldw	fp,0(sp)
  2148e8:	dec00204 	addi	sp,sp,8
  2148ec:	f800283a 	ret

002148f0 <alt_get_errno>:
  2148f0:	defffe04 	addi	sp,sp,-8
  2148f4:	dfc00115 	stw	ra,4(sp)
  2148f8:	df000015 	stw	fp,0(sp)
  2148fc:	d839883a 	mov	fp,sp
  214900:	d0a01017 	ldw	r2,-32704(gp)
  214904:	10000326 	beq	r2,zero,214914 <alt_get_errno+0x24>
  214908:	d0a01017 	ldw	r2,-32704(gp)
  21490c:	103ee83a 	callr	r2
  214910:	00000106 	br	214918 <alt_get_errno+0x28>
  214914:	d0a02704 	addi	r2,gp,-32612
  214918:	e037883a 	mov	sp,fp
  21491c:	dfc00117 	ldw	ra,4(sp)
  214920:	df000017 	ldw	fp,0(sp)
  214924:	dec00204 	addi	sp,sp,8
  214928:	f800283a 	ret

0021492c <write>:
  21492c:	defff904 	addi	sp,sp,-28
  214930:	dfc00615 	stw	ra,24(sp)
  214934:	df000515 	stw	fp,20(sp)
  214938:	df000504 	addi	fp,sp,20
  21493c:	e13ffd15 	stw	r4,-12(fp)
  214940:	e17ffe15 	stw	r5,-8(fp)
  214944:	e1bfff15 	stw	r6,-4(fp)
  214948:	e0bffd17 	ldw	r2,-12(fp)
  21494c:	10000816 	blt	r2,zero,214970 <write+0x44>
  214950:	01400304 	movi	r5,12
  214954:	e13ffd17 	ldw	r4,-12(fp)
  214958:	02135700 	call	213570 <__mulsi3>
  21495c:	1007883a 	mov	r3,r2
  214960:	00800874 	movhi	r2,33
  214964:	109cc004 	addi	r2,r2,29440
  214968:	1885883a 	add	r2,r3,r2
  21496c:	00000106 	br	214974 <write+0x48>
  214970:	0005883a 	mov	r2,zero
  214974:	e0bffb15 	stw	r2,-20(fp)
  214978:	e0bffb17 	ldw	r2,-20(fp)
  21497c:	10002126 	beq	r2,zero,214a04 <write+0xd8>
  214980:	e0bffb17 	ldw	r2,-20(fp)
  214984:	10800217 	ldw	r2,8(r2)
  214988:	108000cc 	andi	r2,r2,3
  21498c:	10001826 	beq	r2,zero,2149f0 <write+0xc4>
  214990:	e0bffb17 	ldw	r2,-20(fp)
  214994:	10800017 	ldw	r2,0(r2)
  214998:	10800617 	ldw	r2,24(r2)
  21499c:	10001426 	beq	r2,zero,2149f0 <write+0xc4>
  2149a0:	e0bffb17 	ldw	r2,-20(fp)
  2149a4:	10800017 	ldw	r2,0(r2)
  2149a8:	10800617 	ldw	r2,24(r2)
  2149ac:	e0ffff17 	ldw	r3,-4(fp)
  2149b0:	180d883a 	mov	r6,r3
  2149b4:	e17ffe17 	ldw	r5,-8(fp)
  2149b8:	e13ffb17 	ldw	r4,-20(fp)
  2149bc:	103ee83a 	callr	r2
  2149c0:	e0bffc15 	stw	r2,-16(fp)
  2149c4:	e0bffc17 	ldw	r2,-16(fp)
  2149c8:	1000070e 	bge	r2,zero,2149e8 <write+0xbc>
  2149cc:	02148f00 	call	2148f0 <alt_get_errno>
  2149d0:	1007883a 	mov	r3,r2
  2149d4:	e0bffc17 	ldw	r2,-16(fp)
  2149d8:	0085c83a 	sub	r2,zero,r2
  2149dc:	18800015 	stw	r2,0(r3)
  2149e0:	00bfffc4 	movi	r2,-1
  2149e4:	00000c06 	br	214a18 <write+0xec>
  2149e8:	e0bffc17 	ldw	r2,-16(fp)
  2149ec:	00000a06 	br	214a18 <write+0xec>
  2149f0:	02148f00 	call	2148f0 <alt_get_errno>
  2149f4:	1007883a 	mov	r3,r2
  2149f8:	00800344 	movi	r2,13
  2149fc:	18800015 	stw	r2,0(r3)
  214a00:	00000406 	br	214a14 <write+0xe8>
  214a04:	02148f00 	call	2148f0 <alt_get_errno>
  214a08:	1007883a 	mov	r3,r2
  214a0c:	00801444 	movi	r2,81
  214a10:	18800015 	stw	r2,0(r3)
  214a14:	00bfffc4 	movi	r2,-1
  214a18:	e037883a 	mov	sp,fp
  214a1c:	dfc00117 	ldw	ra,4(sp)
  214a20:	df000017 	ldw	fp,0(sp)
  214a24:	dec00204 	addi	sp,sp,8
  214a28:	f800283a 	ret

00214a2c <alt_dev_reg>:
  214a2c:	defffd04 	addi	sp,sp,-12
  214a30:	dfc00215 	stw	ra,8(sp)
  214a34:	df000115 	stw	fp,4(sp)
  214a38:	df000104 	addi	fp,sp,4
  214a3c:	e13fff15 	stw	r4,-4(fp)
  214a40:	d1600d04 	addi	r5,gp,-32716
  214a44:	e13fff17 	ldw	r4,-4(fp)
  214a48:	02162000 	call	216200 <alt_dev_llist_insert>
  214a4c:	e037883a 	mov	sp,fp
  214a50:	dfc00117 	ldw	ra,4(sp)
  214a54:	df000017 	ldw	fp,0(sp)
  214a58:	dec00204 	addi	sp,sp,8
  214a5c:	f800283a 	ret

00214a60 <alt_irq_init>:
  214a60:	defffd04 	addi	sp,sp,-12
  214a64:	dfc00215 	stw	ra,8(sp)
  214a68:	df000115 	stw	fp,4(sp)
  214a6c:	df000104 	addi	fp,sp,4
  214a70:	e13fff15 	stw	r4,-4(fp)
  214a74:	02168880 	call	216888 <altera_nios2_gen2_irq_init>
  214a78:	00800044 	movi	r2,1
  214a7c:	1001703a 	wrctl	status,r2
  214a80:	0001883a 	nop
  214a84:	e037883a 	mov	sp,fp
  214a88:	dfc00117 	ldw	ra,4(sp)
  214a8c:	df000017 	ldw	fp,0(sp)
  214a90:	dec00204 	addi	sp,sp,8
  214a94:	f800283a 	ret

00214a98 <alt_sys_init>:
  214a98:	defffe04 	addi	sp,sp,-8
  214a9c:	dfc00115 	stw	ra,4(sp)
  214aa0:	df000015 	stw	fp,0(sp)
  214aa4:	d839883a 	mov	fp,sp
  214aa8:	0001883a 	nop
  214aac:	0001883a 	nop
  214ab0:	0001883a 	nop
  214ab4:	0001883a 	nop
  214ab8:	01000874 	movhi	r4,33
  214abc:	211c6b04 	addi	r4,r4,29100
  214ac0:	0214a2c0 	call	214a2c <alt_dev_reg>
  214ac4:	01000874 	movhi	r4,33
  214ac8:	211c7604 	addi	r4,r4,29144
  214acc:	02158780 	call	215878 <altera_onchip_flash_init>
  214ad0:	0001883a 	nop
  214ad4:	0001883a 	nop
  214ad8:	e037883a 	mov	sp,fp
  214adc:	dfc00117 	ldw	ra,4(sp)
  214ae0:	df000017 	ldw	fp,0(sp)
  214ae4:	dec00204 	addi	sp,sp,8
  214ae8:	f800283a 	ret

00214aec <alt_avalon_spi_command>:
  214aec:	defff404 	addi	sp,sp,-48
  214af0:	df000b15 	stw	fp,44(sp)
  214af4:	df000b04 	addi	fp,sp,44
  214af8:	e13ffc15 	stw	r4,-16(fp)
  214afc:	e17ffd15 	stw	r5,-12(fp)
  214b00:	e1bffe15 	stw	r6,-8(fp)
  214b04:	e1ffff15 	stw	r7,-4(fp)
  214b08:	e0ffff17 	ldw	r3,-4(fp)
  214b0c:	e0bffe17 	ldw	r2,-8(fp)
  214b10:	1885883a 	add	r2,r3,r2
  214b14:	e0bff815 	stw	r2,-32(fp)
  214b18:	e0c00217 	ldw	r3,8(fp)
  214b1c:	e0800117 	ldw	r2,4(fp)
  214b20:	1885883a 	add	r2,r3,r2
  214b24:	e0bff915 	stw	r2,-28(fp)
  214b28:	e0800117 	ldw	r2,4(fp)
  214b2c:	e0bff515 	stw	r2,-44(fp)
  214b30:	e0bffe17 	ldw	r2,-8(fp)
  214b34:	e0bff615 	stw	r2,-40(fp)
  214b38:	00800044 	movi	r2,1
  214b3c:	e0bff715 	stw	r2,-36(fp)
  214b40:	e0bffc17 	ldw	r2,-16(fp)
  214b44:	10800504 	addi	r2,r2,20
  214b48:	1009883a 	mov	r4,r2
  214b4c:	00c00044 	movi	r3,1
  214b50:	e0bffd17 	ldw	r2,-12(fp)
  214b54:	1884983a 	sll	r2,r3,r2
  214b58:	20800035 	stwio	r2,0(r4)
  214b5c:	e0800317 	ldw	r2,12(fp)
  214b60:	1080008c 	andi	r2,r2,2
  214b64:	1000051e 	bne	r2,zero,214b7c <alt_avalon_spi_command+0x90>
  214b68:	e0bffc17 	ldw	r2,-16(fp)
  214b6c:	10800304 	addi	r2,r2,12
  214b70:	1007883a 	mov	r3,r2
  214b74:	00810004 	movi	r2,1024
  214b78:	18800035 	stwio	r2,0(r3)
  214b7c:	e0bffc17 	ldw	r2,-16(fp)
  214b80:	10800037 	ldwio	r2,0(r2)
  214b84:	e0bffc17 	ldw	r2,-16(fp)
  214b88:	10800204 	addi	r2,r2,8
  214b8c:	10800037 	ldwio	r2,0(r2)
  214b90:	e0bffa15 	stw	r2,-24(fp)
  214b94:	e0bffa17 	ldw	r2,-24(fp)
  214b98:	1080100c 	andi	r2,r2,64
  214b9c:	10000226 	beq	r2,zero,214ba8 <alt_avalon_spi_command+0xbc>
  214ba0:	e0bff717 	ldw	r2,-36(fp)
  214ba4:	1000031e 	bne	r2,zero,214bb4 <alt_avalon_spi_command+0xc8>
  214ba8:	e0bffa17 	ldw	r2,-24(fp)
  214bac:	1080200c 	andi	r2,r2,128
  214bb0:	103ff426 	beq	r2,zero,214b84 <_gp+0xffff5704>
  214bb4:	e0bffa17 	ldw	r2,-24(fp)
  214bb8:	1080100c 	andi	r2,r2,64
  214bbc:	10001e26 	beq	r2,zero,214c38 <alt_avalon_spi_command+0x14c>
  214bc0:	e0bff717 	ldw	r2,-36(fp)
  214bc4:	00801c0e 	bge	zero,r2,214c38 <alt_avalon_spi_command+0x14c>
  214bc8:	e0bff717 	ldw	r2,-36(fp)
  214bcc:	10bfffc4 	addi	r2,r2,-1
  214bd0:	e0bff715 	stw	r2,-36(fp)
  214bd4:	e0ffff17 	ldw	r3,-4(fp)
  214bd8:	e0bff817 	ldw	r2,-32(fp)
  214bdc:	18800a2e 	bgeu	r3,r2,214c08 <alt_avalon_spi_command+0x11c>
  214be0:	e0bffc17 	ldw	r2,-16(fp)
  214be4:	10800104 	addi	r2,r2,4
  214be8:	1009883a 	mov	r4,r2
  214bec:	e0bfff17 	ldw	r2,-4(fp)
  214bf0:	10c00044 	addi	r3,r2,1
  214bf4:	e0ffff15 	stw	r3,-4(fp)
  214bf8:	10800003 	ldbu	r2,0(r2)
  214bfc:	10803fcc 	andi	r2,r2,255
  214c00:	20800035 	stwio	r2,0(r4)
  214c04:	00000c06 	br	214c38 <alt_avalon_spi_command+0x14c>
  214c08:	e0bff517 	ldw	r2,-44(fp)
  214c0c:	10000826 	beq	r2,zero,214c30 <alt_avalon_spi_command+0x144>
  214c10:	e0bff517 	ldw	r2,-44(fp)
  214c14:	10bfffc4 	addi	r2,r2,-1
  214c18:	e0bff515 	stw	r2,-44(fp)
  214c1c:	e0bffc17 	ldw	r2,-16(fp)
  214c20:	10800104 	addi	r2,r2,4
  214c24:	0007883a 	mov	r3,zero
  214c28:	10c00035 	stwio	r3,0(r2)
  214c2c:	00000206 	br	214c38 <alt_avalon_spi_command+0x14c>
  214c30:	00bf0004 	movi	r2,-1024
  214c34:	e0bff715 	stw	r2,-36(fp)
  214c38:	e0bffa17 	ldw	r2,-24(fp)
  214c3c:	1080200c 	andi	r2,r2,128
  214c40:	103fd026 	beq	r2,zero,214b84 <_gp+0xffff5704>
  214c44:	e0bffc17 	ldw	r2,-16(fp)
  214c48:	10800037 	ldwio	r2,0(r2)
  214c4c:	e0bffb15 	stw	r2,-20(fp)
  214c50:	e0bff617 	ldw	r2,-40(fp)
  214c54:	10000426 	beq	r2,zero,214c68 <alt_avalon_spi_command+0x17c>
  214c58:	e0bff617 	ldw	r2,-40(fp)
  214c5c:	10bfffc4 	addi	r2,r2,-1
  214c60:	e0bff615 	stw	r2,-40(fp)
  214c64:	00000506 	br	214c7c <alt_avalon_spi_command+0x190>
  214c68:	e0800217 	ldw	r2,8(fp)
  214c6c:	10c00044 	addi	r3,r2,1
  214c70:	e0c00215 	stw	r3,8(fp)
  214c74:	e0fffb17 	ldw	r3,-20(fp)
  214c78:	10c00005 	stb	r3,0(r2)
  214c7c:	e0bff717 	ldw	r2,-36(fp)
  214c80:	10800044 	addi	r2,r2,1
  214c84:	e0bff715 	stw	r2,-36(fp)
  214c88:	e0bff617 	ldw	r2,-40(fp)
  214c8c:	103fbd1e 	bne	r2,zero,214b84 <_gp+0xffff5704>
  214c90:	e0c00217 	ldw	r3,8(fp)
  214c94:	e0bff917 	ldw	r2,-28(fp)
  214c98:	18bfba1e 	bne	r3,r2,214b84 <_gp+0xffff5704>
  214c9c:	e0bffc17 	ldw	r2,-16(fp)
  214ca0:	10800204 	addi	r2,r2,8
  214ca4:	10800037 	ldwio	r2,0(r2)
  214ca8:	e0bffa15 	stw	r2,-24(fp)
  214cac:	e0bffa17 	ldw	r2,-24(fp)
  214cb0:	1080080c 	andi	r2,r2,32
  214cb4:	103ff926 	beq	r2,zero,214c9c <_gp+0xffff581c>
  214cb8:	e0800317 	ldw	r2,12(fp)
  214cbc:	1080004c 	andi	r2,r2,1
  214cc0:	1000041e 	bne	r2,zero,214cd4 <alt_avalon_spi_command+0x1e8>
  214cc4:	e0bffc17 	ldw	r2,-16(fp)
  214cc8:	10800304 	addi	r2,r2,12
  214ccc:	0007883a 	mov	r3,zero
  214cd0:	10c00035 	stwio	r3,0(r2)
  214cd4:	e0800117 	ldw	r2,4(fp)
  214cd8:	e037883a 	mov	sp,fp
  214cdc:	df000017 	ldw	fp,0(sp)
  214ce0:	dec00104 	addi	sp,sp,4
  214ce4:	f800283a 	ret

00214ce8 <altera_avalon_uart_read_fd>:
  214ce8:	defffa04 	addi	sp,sp,-24
  214cec:	dfc00515 	stw	ra,20(sp)
  214cf0:	df000415 	stw	fp,16(sp)
  214cf4:	df000404 	addi	fp,sp,16
  214cf8:	e13ffd15 	stw	r4,-12(fp)
  214cfc:	e17ffe15 	stw	r5,-8(fp)
  214d00:	e1bfff15 	stw	r6,-4(fp)
  214d04:	e0bffd17 	ldw	r2,-12(fp)
  214d08:	10800017 	ldw	r2,0(r2)
  214d0c:	e0bffc15 	stw	r2,-16(fp)
  214d10:	e0bffc17 	ldw	r2,-16(fp)
  214d14:	10c00a04 	addi	r3,r2,40
  214d18:	e0bffd17 	ldw	r2,-12(fp)
  214d1c:	10800217 	ldw	r2,8(r2)
  214d20:	100f883a 	mov	r7,r2
  214d24:	e1bfff17 	ldw	r6,-4(fp)
  214d28:	e17ffe17 	ldw	r5,-8(fp)
  214d2c:	1809883a 	mov	r4,r3
  214d30:	0214de40 	call	214de4 <altera_avalon_uart_read>
  214d34:	e037883a 	mov	sp,fp
  214d38:	dfc00117 	ldw	ra,4(sp)
  214d3c:	df000017 	ldw	fp,0(sp)
  214d40:	dec00204 	addi	sp,sp,8
  214d44:	f800283a 	ret

00214d48 <altera_avalon_uart_write_fd>:
  214d48:	defffa04 	addi	sp,sp,-24
  214d4c:	dfc00515 	stw	ra,20(sp)
  214d50:	df000415 	stw	fp,16(sp)
  214d54:	df000404 	addi	fp,sp,16
  214d58:	e13ffd15 	stw	r4,-12(fp)
  214d5c:	e17ffe15 	stw	r5,-8(fp)
  214d60:	e1bfff15 	stw	r6,-4(fp)
  214d64:	e0bffd17 	ldw	r2,-12(fp)
  214d68:	10800017 	ldw	r2,0(r2)
  214d6c:	e0bffc15 	stw	r2,-16(fp)
  214d70:	e0bffc17 	ldw	r2,-16(fp)
  214d74:	10c00a04 	addi	r3,r2,40
  214d78:	e0bffd17 	ldw	r2,-12(fp)
  214d7c:	10800217 	ldw	r2,8(r2)
  214d80:	100f883a 	mov	r7,r2
  214d84:	e1bfff17 	ldw	r6,-4(fp)
  214d88:	e17ffe17 	ldw	r5,-8(fp)
  214d8c:	1809883a 	mov	r4,r3
  214d90:	0214ee40 	call	214ee4 <altera_avalon_uart_write>
  214d94:	e037883a 	mov	sp,fp
  214d98:	dfc00117 	ldw	ra,4(sp)
  214d9c:	df000017 	ldw	fp,0(sp)
  214da0:	dec00204 	addi	sp,sp,8
  214da4:	f800283a 	ret

00214da8 <alt_get_errno>:
  214da8:	defffe04 	addi	sp,sp,-8
  214dac:	dfc00115 	stw	ra,4(sp)
  214db0:	df000015 	stw	fp,0(sp)
  214db4:	d839883a 	mov	fp,sp
  214db8:	d0a01017 	ldw	r2,-32704(gp)
  214dbc:	10000326 	beq	r2,zero,214dcc <alt_get_errno+0x24>
  214dc0:	d0a01017 	ldw	r2,-32704(gp)
  214dc4:	103ee83a 	callr	r2
  214dc8:	00000106 	br	214dd0 <alt_get_errno+0x28>
  214dcc:	d0a02704 	addi	r2,gp,-32612
  214dd0:	e037883a 	mov	sp,fp
  214dd4:	dfc00117 	ldw	ra,4(sp)
  214dd8:	df000017 	ldw	fp,0(sp)
  214ddc:	dec00204 	addi	sp,sp,8
  214de0:	f800283a 	ret

00214de4 <altera_avalon_uart_read>:
  214de4:	defff804 	addi	sp,sp,-32
  214de8:	dfc00715 	stw	ra,28(sp)
  214dec:	df000615 	stw	fp,24(sp)
  214df0:	df000604 	addi	fp,sp,24
  214df4:	e13ffc15 	stw	r4,-16(fp)
  214df8:	e17ffd15 	stw	r5,-12(fp)
  214dfc:	e1bffe15 	stw	r6,-8(fp)
  214e00:	e1ffff15 	stw	r7,-4(fp)
  214e04:	e0bfff17 	ldw	r2,-4(fp)
  214e08:	1090000c 	andi	r2,r2,16384
  214e0c:	1005003a 	cmpeq	r2,r2,zero
  214e10:	10803fcc 	andi	r2,r2,255
  214e14:	e0bffa15 	stw	r2,-24(fp)
  214e18:	e0bffc17 	ldw	r2,-16(fp)
  214e1c:	10800017 	ldw	r2,0(r2)
  214e20:	10800204 	addi	r2,r2,8
  214e24:	10800037 	ldwio	r2,0(r2)
  214e28:	e0bffb15 	stw	r2,-20(fp)
  214e2c:	e0bffc17 	ldw	r2,-16(fp)
  214e30:	10800017 	ldw	r2,0(r2)
  214e34:	10800204 	addi	r2,r2,8
  214e38:	0007883a 	mov	r3,zero
  214e3c:	10c00035 	stwio	r3,0(r2)
  214e40:	e0bffb17 	ldw	r2,-20(fp)
  214e44:	1080200c 	andi	r2,r2,128
  214e48:	10000b26 	beq	r2,zero,214e78 <altera_avalon_uart_read+0x94>
  214e4c:	e0bffc17 	ldw	r2,-16(fp)
  214e50:	10800017 	ldw	r2,0(r2)
  214e54:	10800037 	ldwio	r2,0(r2)
  214e58:	1007883a 	mov	r3,r2
  214e5c:	e0bffd17 	ldw	r2,-12(fp)
  214e60:	10c00005 	stb	r3,0(r2)
  214e64:	e0bffb17 	ldw	r2,-20(fp)
  214e68:	108000cc 	andi	r2,r2,3
  214e6c:	1000021e 	bne	r2,zero,214e78 <altera_avalon_uart_read+0x94>
  214e70:	00800044 	movi	r2,1
  214e74:	00000706 	br	214e94 <altera_avalon_uart_read+0xb0>
  214e78:	e0bffa17 	ldw	r2,-24(fp)
  214e7c:	103fe61e 	bne	r2,zero,214e18 <_gp+0xffff5998>
  214e80:	0214da80 	call	214da8 <alt_get_errno>
  214e84:	1007883a 	mov	r3,r2
  214e88:	008002c4 	movi	r2,11
  214e8c:	18800015 	stw	r2,0(r3)
  214e90:	0005883a 	mov	r2,zero
  214e94:	e037883a 	mov	sp,fp
  214e98:	dfc00117 	ldw	ra,4(sp)
  214e9c:	df000017 	ldw	fp,0(sp)
  214ea0:	dec00204 	addi	sp,sp,8
  214ea4:	f800283a 	ret

00214ea8 <alt_get_errno>:
  214ea8:	defffe04 	addi	sp,sp,-8
  214eac:	dfc00115 	stw	ra,4(sp)
  214eb0:	df000015 	stw	fp,0(sp)
  214eb4:	d839883a 	mov	fp,sp
  214eb8:	d0a01017 	ldw	r2,-32704(gp)
  214ebc:	10000326 	beq	r2,zero,214ecc <alt_get_errno+0x24>
  214ec0:	d0a01017 	ldw	r2,-32704(gp)
  214ec4:	103ee83a 	callr	r2
  214ec8:	00000106 	br	214ed0 <alt_get_errno+0x28>
  214ecc:	d0a02704 	addi	r2,gp,-32612
  214ed0:	e037883a 	mov	sp,fp
  214ed4:	dfc00117 	ldw	ra,4(sp)
  214ed8:	df000017 	ldw	fp,0(sp)
  214edc:	dec00204 	addi	sp,sp,8
  214ee0:	f800283a 	ret

00214ee4 <altera_avalon_uart_write>:
  214ee4:	defff704 	addi	sp,sp,-36
  214ee8:	dfc00815 	stw	ra,32(sp)
  214eec:	df000715 	stw	fp,28(sp)
  214ef0:	df000704 	addi	fp,sp,28
  214ef4:	e13ffc15 	stw	r4,-16(fp)
  214ef8:	e17ffd15 	stw	r5,-12(fp)
  214efc:	e1bffe15 	stw	r6,-8(fp)
  214f00:	e1ffff15 	stw	r7,-4(fp)
  214f04:	e0bfff17 	ldw	r2,-4(fp)
  214f08:	1090000c 	andi	r2,r2,16384
  214f0c:	1005003a 	cmpeq	r2,r2,zero
  214f10:	10803fcc 	andi	r2,r2,255
  214f14:	e0bffa15 	stw	r2,-24(fp)
  214f18:	e0bffe17 	ldw	r2,-8(fp)
  214f1c:	e0bff915 	stw	r2,-28(fp)
  214f20:	e0bffc17 	ldw	r2,-16(fp)
  214f24:	10800017 	ldw	r2,0(r2)
  214f28:	10800204 	addi	r2,r2,8
  214f2c:	10800037 	ldwio	r2,0(r2)
  214f30:	e0bffb15 	stw	r2,-20(fp)
  214f34:	e0bffb17 	ldw	r2,-20(fp)
  214f38:	1080100c 	andi	r2,r2,64
  214f3c:	10000f26 	beq	r2,zero,214f7c <altera_avalon_uart_write+0x98>
  214f40:	e0bffc17 	ldw	r2,-16(fp)
  214f44:	10800017 	ldw	r2,0(r2)
  214f48:	10800104 	addi	r2,r2,4
  214f4c:	1009883a 	mov	r4,r2
  214f50:	e0bffd17 	ldw	r2,-12(fp)
  214f54:	10c00044 	addi	r3,r2,1
  214f58:	e0fffd15 	stw	r3,-12(fp)
  214f5c:	10800003 	ldbu	r2,0(r2)
  214f60:	10803fcc 	andi	r2,r2,255
  214f64:	1080201c 	xori	r2,r2,128
  214f68:	10bfe004 	addi	r2,r2,-128
  214f6c:	20800035 	stwio	r2,0(r4)
  214f70:	e0bff917 	ldw	r2,-28(fp)
  214f74:	10bfffc4 	addi	r2,r2,-1
  214f78:	e0bff915 	stw	r2,-28(fp)
  214f7c:	e0bffa17 	ldw	r2,-24(fp)
  214f80:	10000226 	beq	r2,zero,214f8c <altera_avalon_uart_write+0xa8>
  214f84:	e0bff917 	ldw	r2,-28(fp)
  214f88:	103fe51e 	bne	r2,zero,214f20 <_gp+0xffff5aa0>
  214f8c:	e0bff917 	ldw	r2,-28(fp)
  214f90:	10000426 	beq	r2,zero,214fa4 <altera_avalon_uart_write+0xc0>
  214f94:	0214ea80 	call	214ea8 <alt_get_errno>
  214f98:	1007883a 	mov	r3,r2
  214f9c:	008002c4 	movi	r2,11
  214fa0:	18800015 	stw	r2,0(r3)
  214fa4:	e0fffe17 	ldw	r3,-8(fp)
  214fa8:	e0bff917 	ldw	r2,-28(fp)
  214fac:	1885c83a 	sub	r2,r3,r2
  214fb0:	e037883a 	mov	sp,fp
  214fb4:	dfc00117 	ldw	ra,4(sp)
  214fb8:	df000017 	ldw	fp,0(sp)
  214fbc:	dec00204 	addi	sp,sp,8
  214fc0:	f800283a 	ret

00214fc4 <alt_flash_device_register>:
  214fc4:	defffd04 	addi	sp,sp,-12
  214fc8:	dfc00215 	stw	ra,8(sp)
  214fcc:	df000115 	stw	fp,4(sp)
  214fd0:	df000104 	addi	fp,sp,4
  214fd4:	e13fff15 	stw	r4,-4(fp)
  214fd8:	d1601104 	addi	r5,gp,-32700
  214fdc:	e13fff17 	ldw	r4,-4(fp)
  214fe0:	02162000 	call	216200 <alt_dev_llist_insert>
  214fe4:	e037883a 	mov	sp,fp
  214fe8:	dfc00117 	ldw	ra,4(sp)
  214fec:	df000017 	ldw	fp,0(sp)
  214ff0:	dec00204 	addi	sp,sp,8
  214ff4:	f800283a 	ret

00214ff8 <alt_onchip_flash_read>:
  214ff8:	defff704 	addi	sp,sp,-36
  214ffc:	dfc00815 	stw	ra,32(sp)
  215000:	df000715 	stw	fp,28(sp)
  215004:	df000704 	addi	fp,sp,28
  215008:	e13ffc15 	stw	r4,-16(fp)
  21500c:	e17ffd15 	stw	r5,-12(fp)
  215010:	e1bffe15 	stw	r6,-8(fp)
  215014:	e1ffff15 	stw	r7,-4(fp)
  215018:	e03ff915 	stw	zero,-28(fp)
  21501c:	e0bffc17 	ldw	r2,-16(fp)
  215020:	e0bffa15 	stw	r2,-24(fp)
  215024:	e0bffa17 	ldw	r2,-24(fp)
  215028:	10800b17 	ldw	r2,44(r2)
  21502c:	e0fffd17 	ldw	r3,-12(fp)
  215030:	1880060e 	bge	r3,r2,21504c <alt_onchip_flash_read+0x54>
  215034:	e0fffd17 	ldw	r3,-12(fp)
  215038:	e0bfff17 	ldw	r2,-4(fp)
  21503c:	1885883a 	add	r2,r3,r2
  215040:	e0fffa17 	ldw	r3,-24(fp)
  215044:	18c00b17 	ldw	r3,44(r3)
  215048:	1880020e 	bge	r3,r2,215054 <alt_onchip_flash_read+0x5c>
  21504c:	00bffc84 	movi	r2,-14
  215050:	00001706 	br	2150b0 <alt_onchip_flash_read+0xb8>
  215054:	e0bffa17 	ldw	r2,-24(fp)
  215058:	10c00a17 	ldw	r3,40(r2)
  21505c:	e0bffd17 	ldw	r2,-12(fp)
  215060:	1885883a 	add	r2,r3,r2
  215064:	e0ffff17 	ldw	r3,-4(fp)
  215068:	180d883a 	mov	r6,r3
  21506c:	100b883a 	mov	r5,r2
  215070:	e13ffe17 	ldw	r4,-8(fp)
  215074:	02140000 	call	214000 <memcpy>
  215078:	e0bffa17 	ldw	r2,-24(fp)
  21507c:	10802f17 	ldw	r2,188(r2)
  215080:	10000a26 	beq	r2,zero,2150ac <alt_onchip_flash_read+0xb4>
  215084:	e0bffa17 	ldw	r2,-24(fp)
  215088:	10802f17 	ldw	r2,188(r2)
  21508c:	10800037 	ldwio	r2,0(r2)
  215090:	1080010c 	andi	r2,r2,4
  215094:	e0bffb15 	stw	r2,-20(fp)
  215098:	e0bffb17 	ldw	r2,-20(fp)
  21509c:	10800120 	cmpeqi	r2,r2,4
  2150a0:	1000021e 	bne	r2,zero,2150ac <alt_onchip_flash_read+0xb4>
  2150a4:	00bffec4 	movi	r2,-5
  2150a8:	e0bff915 	stw	r2,-28(fp)
  2150ac:	e0bff917 	ldw	r2,-28(fp)
  2150b0:	e037883a 	mov	sp,fp
  2150b4:	dfc00117 	ldw	ra,4(sp)
  2150b8:	df000017 	ldw	fp,0(sp)
  2150bc:	dec00204 	addi	sp,sp,8
  2150c0:	f800283a 	ret

002150c4 <alt_onchip_flash_get_info>:
  2150c4:	defffa04 	addi	sp,sp,-24
  2150c8:	df000515 	stw	fp,20(sp)
  2150cc:	df000504 	addi	fp,sp,20
  2150d0:	e13ffd15 	stw	r4,-12(fp)
  2150d4:	e17ffe15 	stw	r5,-8(fp)
  2150d8:	e1bfff15 	stw	r6,-4(fp)
  2150dc:	e03ffb15 	stw	zero,-20(fp)
  2150e0:	e0bffd17 	ldw	r2,-12(fp)
  2150e4:	e0bffc15 	stw	r2,-16(fp)
  2150e8:	e0bfff17 	ldw	r2,-4(fp)
  2150ec:	10000426 	beq	r2,zero,215100 <alt_onchip_flash_get_info+0x3c>
  2150f0:	e0bffc17 	ldw	r2,-16(fp)
  2150f4:	10c00c17 	ldw	r3,48(r2)
  2150f8:	e0bfff17 	ldw	r2,-4(fp)
  2150fc:	10c00015 	stw	r3,0(r2)
  215100:	e0bffc17 	ldw	r2,-16(fp)
  215104:	10800c17 	ldw	r2,48(r2)
  215108:	1000031e 	bne	r2,zero,215118 <alt_onchip_flash_get_info+0x54>
  21510c:	00bffd04 	movi	r2,-12
  215110:	e0bffb15 	stw	r2,-20(fp)
  215114:	00000d06 	br	21514c <alt_onchip_flash_get_info+0x88>
  215118:	e0bffc17 	ldw	r2,-16(fp)
  21511c:	10800c17 	ldw	r2,48(r2)
  215120:	10800250 	cmplti	r2,r2,9
  215124:	1000031e 	bne	r2,zero,215134 <alt_onchip_flash_get_info+0x70>
  215128:	00bffc84 	movi	r2,-14
  21512c:	e0bffb15 	stw	r2,-20(fp)
  215130:	00000606 	br	21514c <alt_onchip_flash_get_info+0x88>
  215134:	e0bffe17 	ldw	r2,-8(fp)
  215138:	10000426 	beq	r2,zero,21514c <alt_onchip_flash_get_info+0x88>
  21513c:	e0bffc17 	ldw	r2,-16(fp)
  215140:	10c00d04 	addi	r3,r2,52
  215144:	e0bffe17 	ldw	r2,-8(fp)
  215148:	10c00015 	stw	r3,0(r2)
  21514c:	e0bffb17 	ldw	r2,-20(fp)
  215150:	e037883a 	mov	sp,fp
  215154:	df000017 	ldw	fp,0(sp)
  215158:	dec00104 	addi	sp,sp,4
  21515c:	f800283a 	ret

00215160 <alt_onchip_flash_erase_block>:
  215160:	defff904 	addi	sp,sp,-28
  215164:	dfc00615 	stw	ra,24(sp)
  215168:	df000515 	stw	fp,20(sp)
  21516c:	df000504 	addi	fp,sp,20
  215170:	e13ffe15 	stw	r4,-8(fp)
  215174:	e17fff15 	stw	r5,-4(fp)
  215178:	e03ffb15 	stw	zero,-20(fp)
  21517c:	e0bffe17 	ldw	r2,-8(fp)
  215180:	e0bffc15 	stw	r2,-16(fp)
  215184:	e0bffc17 	ldw	r2,-16(fp)
  215188:	10800b17 	ldw	r2,44(r2)
  21518c:	e0ffff17 	ldw	r3,-4(fp)
  215190:	18800216 	blt	r3,r2,21519c <alt_onchip_flash_erase_block+0x3c>
  215194:	00bffc84 	movi	r2,-14
  215198:	00004606 	br	2152b4 <alt_onchip_flash_erase_block+0x154>
  21519c:	e0bffc17 	ldw	r2,-16(fp)
  2151a0:	10802f17 	ldw	r2,188(r2)
  2151a4:	10000326 	beq	r2,zero,2151b4 <alt_onchip_flash_erase_block+0x54>
  2151a8:	e0bffc17 	ldw	r2,-16(fp)
  2151ac:	10802e17 	ldw	r2,184(r2)
  2151b0:	10000226 	beq	r2,zero,2151bc <alt_onchip_flash_erase_block+0x5c>
  2151b4:	00bffb44 	movi	r2,-19
  2151b8:	00003e06 	br	2152b4 <alt_onchip_flash_erase_block+0x154>
  2151bc:	e0bffc17 	ldw	r2,-16(fp)
  2151c0:	10803f17 	ldw	r2,252(r2)
  2151c4:	10ffffc4 	addi	r3,r2,-1
  2151c8:	e0bfff17 	ldw	r2,-4(fp)
  2151cc:	1884703a 	and	r2,r3,r2
  2151d0:	10000226 	beq	r2,zero,2151dc <alt_onchip_flash_erase_block+0x7c>
  2151d4:	00bffa84 	movi	r2,-22
  2151d8:	00003606 	br	2152b4 <alt_onchip_flash_erase_block+0x154>
  2151dc:	e13ffc17 	ldw	r4,-16(fp)
  2151e0:	0215d540 	call	215d54 <alt_onchip_flash_poll_for_status_to_go_idle>
  2151e4:	e0bffb15 	stw	r2,-20(fp)
  2151e8:	e0bffb17 	ldw	r2,-20(fp)
  2151ec:	10000226 	beq	r2,zero,2151f8 <alt_onchip_flash_erase_block+0x98>
  2151f0:	e0bffb17 	ldw	r2,-20(fp)
  2151f4:	00002f06 	br	2152b4 <alt_onchip_flash_erase_block+0x154>
  2151f8:	e0bffc17 	ldw	r2,-16(fp)
  2151fc:	10802f17 	ldw	r2,188(r2)
  215200:	10c00104 	addi	r3,r2,4
  215204:	e0bffc17 	ldw	r2,-16(fp)
  215208:	10802f17 	ldw	r2,188(r2)
  21520c:	10800104 	addi	r2,r2,4
  215210:	10800037 	ldwio	r2,0(r2)
  215214:	113c002c 	andhi	r4,r2,61440
  215218:	00802034 	movhi	r2,128
  21521c:	10bfffc4 	addi	r2,r2,-1
  215220:	2084b03a 	or	r2,r4,r2
  215224:	18800035 	stwio	r2,0(r3)
  215228:	e0bfff17 	ldw	r2,-4(fp)
  21522c:	1000010e 	bge	r2,zero,215234 <alt_onchip_flash_erase_block+0xd4>
  215230:	108000c4 	addi	r2,r2,3
  215234:	1005d0ba 	srai	r2,r2,2
  215238:	e0bffd15 	stw	r2,-12(fp)
  21523c:	e0bffc17 	ldw	r2,-16(fp)
  215240:	10802f17 	ldw	r2,188(r2)
  215244:	10800104 	addi	r2,r2,4
  215248:	e0fffc17 	ldw	r3,-16(fp)
  21524c:	18c02f17 	ldw	r3,188(r3)
  215250:	18c00104 	addi	r3,r3,4
  215254:	18c00037 	ldwio	r3,0(r3)
  215258:	193c002c 	andhi	r4,r3,61440
  21525c:	e0fffd17 	ldw	r3,-12(fp)
  215260:	18c01c34 	orhi	r3,r3,112
  215264:	20c6b03a 	or	r3,r4,r3
  215268:	10c00035 	stwio	r3,0(r2)
  21526c:	e13ffc17 	ldw	r4,-16(fp)
  215270:	0215d540 	call	215d54 <alt_onchip_flash_poll_for_status_to_go_idle>
  215274:	e0bffb15 	stw	r2,-20(fp)
  215278:	e13ffc17 	ldw	r4,-16(fp)
  21527c:	0215de40 	call	215de4 <alt_onchip_flash_poll_for_status_erase_passed>
  215280:	e0bffb15 	stw	r2,-20(fp)
  215284:	e0bffc17 	ldw	r2,-16(fp)
  215288:	10802f17 	ldw	r2,188(r2)
  21528c:	10c00104 	addi	r3,r2,4
  215290:	e0bffc17 	ldw	r2,-16(fp)
  215294:	10802f17 	ldw	r2,188(r2)
  215298:	10800104 	addi	r2,r2,4
  21529c:	11000037 	ldwio	r4,0(r2)
  2152a0:	00840034 	movhi	r2,4096
  2152a4:	10bfffc4 	addi	r2,r2,-1
  2152a8:	2084b03a 	or	r2,r4,r2
  2152ac:	18800035 	stwio	r2,0(r3)
  2152b0:	e0bffb17 	ldw	r2,-20(fp)
  2152b4:	e037883a 	mov	sp,fp
  2152b8:	dfc00117 	ldw	ra,4(sp)
  2152bc:	df000017 	ldw	fp,0(sp)
  2152c0:	dec00204 	addi	sp,sp,8
  2152c4:	f800283a 	ret

002152c8 <alt_onchip_flash_write_block>:
  2152c8:	defff204 	addi	sp,sp,-56
  2152cc:	dfc00d15 	stw	ra,52(sp)
  2152d0:	df000c15 	stw	fp,48(sp)
  2152d4:	df000c04 	addi	fp,sp,48
  2152d8:	e13ffc15 	stw	r4,-16(fp)
  2152dc:	e17ffd15 	stw	r5,-12(fp)
  2152e0:	e1bffe15 	stw	r6,-8(fp)
  2152e4:	e1ffff15 	stw	r7,-4(fp)
  2152e8:	e03ff415 	stw	zero,-48(fp)
  2152ec:	e0bffc17 	ldw	r2,-16(fp)
  2152f0:	e0bff815 	stw	r2,-32(fp)
  2152f4:	e03ff515 	stw	zero,-44(fp)
  2152f8:	e0bffe17 	ldw	r2,-8(fp)
  2152fc:	e0bff615 	stw	r2,-40(fp)
  215300:	e0bff817 	ldw	r2,-32(fp)
  215304:	10800b17 	ldw	r2,44(r2)
  215308:	e0fffd17 	ldw	r3,-12(fp)
  21530c:	18800a0e 	bge	r3,r2,215338 <alt_onchip_flash_write_block+0x70>
  215310:	e0bff817 	ldw	r2,-32(fp)
  215314:	10800b17 	ldw	r2,44(r2)
  215318:	e0fffe17 	ldw	r3,-8(fp)
  21531c:	1880060e 	bge	r3,r2,215338 <alt_onchip_flash_write_block+0x70>
  215320:	e0bff817 	ldw	r2,-32(fp)
  215324:	10c00b17 	ldw	r3,44(r2)
  215328:	e0bffe17 	ldw	r2,-8(fp)
  21532c:	1887c83a 	sub	r3,r3,r2
  215330:	e0800217 	ldw	r2,8(fp)
  215334:	1880020e 	bge	r3,r2,215340 <alt_onchip_flash_write_block+0x78>
  215338:	00bffc84 	movi	r2,-14
  21533c:	00009306 	br	21558c <alt_onchip_flash_write_block+0x2c4>
  215340:	e0bff817 	ldw	r2,-32(fp)
  215344:	10802f17 	ldw	r2,188(r2)
  215348:	10000326 	beq	r2,zero,215358 <alt_onchip_flash_write_block+0x90>
  21534c:	e0bff817 	ldw	r2,-32(fp)
  215350:	10802e17 	ldw	r2,184(r2)
  215354:	10000226 	beq	r2,zero,215360 <alt_onchip_flash_write_block+0x98>
  215358:	00bffb44 	movi	r2,-19
  21535c:	00008b06 	br	21558c <alt_onchip_flash_write_block+0x2c4>
  215360:	e13ff817 	ldw	r4,-32(fp)
  215364:	0215d540 	call	215d54 <alt_onchip_flash_poll_for_status_to_go_idle>
  215368:	e0bff415 	stw	r2,-48(fp)
  21536c:	e0bff417 	ldw	r2,-48(fp)
  215370:	10000226 	beq	r2,zero,21537c <alt_onchip_flash_write_block+0xb4>
  215374:	e0bff417 	ldw	r2,-48(fp)
  215378:	00008406 	br	21558c <alt_onchip_flash_write_block+0x2c4>
  21537c:	e0bff817 	ldw	r2,-32(fp)
  215380:	10802f17 	ldw	r2,188(r2)
  215384:	10c00104 	addi	r3,r2,4
  215388:	e0bff817 	ldw	r2,-32(fp)
  21538c:	10802f17 	ldw	r2,188(r2)
  215390:	10800104 	addi	r2,r2,4
  215394:	10800037 	ldwio	r2,0(r2)
  215398:	113c002c 	andhi	r4,r2,61440
  21539c:	00802034 	movhi	r2,128
  2153a0:	10bfffc4 	addi	r2,r2,-1
  2153a4:	2084b03a 	or	r2,r4,r2
  2153a8:	18800035 	stwio	r2,0(r3)
  2153ac:	00006506 	br	215544 <alt_onchip_flash_write_block+0x27c>
  2153b0:	00bfffc4 	movi	r2,-1
  2153b4:	e0bffb15 	stw	r2,-20(fp)
  2153b8:	e0bff617 	ldw	r2,-40(fp)
  2153bc:	108000cc 	andi	r2,r2,3
  2153c0:	10001e1e 	bne	r2,zero,21543c <alt_onchip_flash_write_block+0x174>
  2153c4:	e0bff617 	ldw	r2,-40(fp)
  2153c8:	10c00104 	addi	r3,r2,4
  2153cc:	00bfff04 	movi	r2,-4
  2153d0:	1884703a 	and	r2,r3,r2
  2153d4:	e0bff715 	stw	r2,-36(fp)
  2153d8:	e0fff717 	ldw	r3,-36(fp)
  2153dc:	e0bff617 	ldw	r2,-40(fp)
  2153e0:	1885c83a 	sub	r2,r3,r2
  2153e4:	e0c00217 	ldw	r3,8(fp)
  2153e8:	1880010e 	bge	r3,r2,2153f0 <alt_onchip_flash_write_block+0x128>
  2153ec:	1805883a 	mov	r2,r3
  2153f0:	e0bff915 	stw	r2,-28(fp)
  2153f4:	e0bff517 	ldw	r2,-44(fp)
  2153f8:	e0ffff17 	ldw	r3,-4(fp)
  2153fc:	1887883a 	add	r3,r3,r2
  215400:	e13ff917 	ldw	r4,-28(fp)
  215404:	e0bffb04 	addi	r2,fp,-20
  215408:	200d883a 	mov	r6,r4
  21540c:	180b883a 	mov	r5,r3
  215410:	1009883a 	mov	r4,r2
  215414:	02140000 	call	214000 <memcpy>
  215418:	e0fff517 	ldw	r3,-44(fp)
  21541c:	e0bff917 	ldw	r2,-28(fp)
  215420:	1885883a 	add	r2,r3,r2
  215424:	e0bff515 	stw	r2,-44(fp)
  215428:	e0c00217 	ldw	r3,8(fp)
  21542c:	e0bff917 	ldw	r2,-28(fp)
  215430:	1885c83a 	sub	r2,r3,r2
  215434:	e0800215 	stw	r2,8(fp)
  215438:	00003006 	br	2154fc <alt_onchip_flash_write_block+0x234>
  21543c:	e0bff617 	ldw	r2,-40(fp)
  215440:	108000cc 	andi	r2,r2,3
  215444:	e0bffa15 	stw	r2,-24(fp)
  215448:	e0fff617 	ldw	r3,-40(fp)
  21544c:	e0bffa17 	ldw	r2,-24(fp)
  215450:	1885c83a 	sub	r2,r3,r2
  215454:	e0bff615 	stw	r2,-40(fp)
  215458:	e0bff617 	ldw	r2,-40(fp)
  21545c:	10c00104 	addi	r3,r2,4
  215460:	00bfff04 	movi	r2,-4
  215464:	1884703a 	and	r2,r3,r2
  215468:	e0bff715 	stw	r2,-36(fp)
  21546c:	e0fff717 	ldw	r3,-36(fp)
  215470:	e0bff617 	ldw	r2,-40(fp)
  215474:	1889c83a 	sub	r4,r3,r2
  215478:	e0c00217 	ldw	r3,8(fp)
  21547c:	e0bffa17 	ldw	r2,-24(fp)
  215480:	1887883a 	add	r3,r3,r2
  215484:	2005883a 	mov	r2,r4
  215488:	1880010e 	bge	r3,r2,215490 <alt_onchip_flash_write_block+0x1c8>
  21548c:	1805883a 	mov	r2,r3
  215490:	e0bff915 	stw	r2,-28(fp)
  215494:	e0fffb04 	addi	r3,fp,-20
  215498:	e0bffa17 	ldw	r2,-24(fp)
  21549c:	1885883a 	add	r2,r3,r2
  2154a0:	100f883a 	mov	r7,r2
  2154a4:	e0bff517 	ldw	r2,-44(fp)
  2154a8:	e0ffff17 	ldw	r3,-4(fp)
  2154ac:	1889883a 	add	r4,r3,r2
  2154b0:	e0fff917 	ldw	r3,-28(fp)
  2154b4:	e0bffa17 	ldw	r2,-24(fp)
  2154b8:	1885c83a 	sub	r2,r3,r2
  2154bc:	100d883a 	mov	r6,r2
  2154c0:	200b883a 	mov	r5,r4
  2154c4:	3809883a 	mov	r4,r7
  2154c8:	02140000 	call	214000 <memcpy>
  2154cc:	e0fff917 	ldw	r3,-28(fp)
  2154d0:	e0bffa17 	ldw	r2,-24(fp)
  2154d4:	1885c83a 	sub	r2,r3,r2
  2154d8:	e0fff517 	ldw	r3,-44(fp)
  2154dc:	1885883a 	add	r2,r3,r2
  2154e0:	e0bff515 	stw	r2,-44(fp)
  2154e4:	e0fff917 	ldw	r3,-28(fp)
  2154e8:	e0bffa17 	ldw	r2,-24(fp)
  2154ec:	1885c83a 	sub	r2,r3,r2
  2154f0:	e0c00217 	ldw	r3,8(fp)
  2154f4:	1885c83a 	sub	r2,r3,r2
  2154f8:	e0800215 	stw	r2,8(fp)
  2154fc:	e0bff817 	ldw	r2,-32(fp)
  215500:	10c00a17 	ldw	r3,40(r2)
  215504:	e0bff617 	ldw	r2,-40(fp)
  215508:	1885883a 	add	r2,r3,r2
  21550c:	e0fffb17 	ldw	r3,-20(fp)
  215510:	10c00035 	stwio	r3,0(r2)
  215514:	e13ff817 	ldw	r4,-32(fp)
  215518:	0215d540 	call	215d54 <alt_onchip_flash_poll_for_status_to_go_idle>
  21551c:	e0bff415 	stw	r2,-48(fp)
  215520:	e0bff417 	ldw	r2,-48(fp)
  215524:	10000a1e 	bne	r2,zero,215550 <alt_onchip_flash_write_block+0x288>
  215528:	e13ff817 	ldw	r4,-32(fp)
  21552c:	0215e740 	call	215e74 <alt_onchip_flash_poll_for_status_write_passed>
  215530:	e0bff415 	stw	r2,-48(fp)
  215534:	e0bff417 	ldw	r2,-48(fp)
  215538:	1000071e 	bne	r2,zero,215558 <alt_onchip_flash_write_block+0x290>
  21553c:	e0bff717 	ldw	r2,-36(fp)
  215540:	e0bff615 	stw	r2,-40(fp)
  215544:	e0800217 	ldw	r2,8(fp)
  215548:	103f991e 	bne	r2,zero,2153b0 <_gp+0xffff5f30>
  21554c:	00000306 	br	21555c <alt_onchip_flash_write_block+0x294>
  215550:	0001883a 	nop
  215554:	00000106 	br	21555c <alt_onchip_flash_write_block+0x294>
  215558:	0001883a 	nop
  21555c:	e0bff817 	ldw	r2,-32(fp)
  215560:	10802f17 	ldw	r2,188(r2)
  215564:	10c00104 	addi	r3,r2,4
  215568:	e0bff817 	ldw	r2,-32(fp)
  21556c:	10802f17 	ldw	r2,188(r2)
  215570:	10800104 	addi	r2,r2,4
  215574:	11000037 	ldwio	r4,0(r2)
  215578:	00840034 	movhi	r2,4096
  21557c:	10bfffc4 	addi	r2,r2,-1
  215580:	2084b03a 	or	r2,r4,r2
  215584:	18800035 	stwio	r2,0(r3)
  215588:	e0bff417 	ldw	r2,-48(fp)
  21558c:	e037883a 	mov	sp,fp
  215590:	dfc00117 	ldw	ra,4(sp)
  215594:	df000017 	ldw	fp,0(sp)
  215598:	dec00204 	addi	sp,sp,8
  21559c:	f800283a 	ret

002155a0 <alt_onchip_flash_write>:
  2155a0:	defff104 	addi	sp,sp,-60
  2155a4:	dfc00e15 	stw	ra,56(sp)
  2155a8:	df000d15 	stw	fp,52(sp)
  2155ac:	df000d04 	addi	fp,sp,52
  2155b0:	e13ffc15 	stw	r4,-16(fp)
  2155b4:	e17ffd15 	stw	r5,-12(fp)
  2155b8:	e1bffe15 	stw	r6,-8(fp)
  2155bc:	e1ffff15 	stw	r7,-4(fp)
  2155c0:	e03ff415 	stw	zero,-48(fp)
  2155c4:	e0bfff17 	ldw	r2,-4(fp)
  2155c8:	e0bff815 	stw	r2,-32(fp)
  2155cc:	e0bffd17 	ldw	r2,-12(fp)
  2155d0:	e0bff915 	stw	r2,-28(fp)
  2155d4:	e0bffc17 	ldw	r2,-16(fp)
  2155d8:	e0bffa15 	stw	r2,-24(fp)
  2155dc:	e0bffa17 	ldw	r2,-24(fp)
  2155e0:	10800b17 	ldw	r2,44(r2)
  2155e4:	e0fffd17 	ldw	r3,-12(fp)
  2155e8:	1880060e 	bge	r3,r2,215604 <alt_onchip_flash_write+0x64>
  2155ec:	e0bffa17 	ldw	r2,-24(fp)
  2155f0:	10c00b17 	ldw	r3,44(r2)
  2155f4:	e0bffd17 	ldw	r2,-12(fp)
  2155f8:	1887c83a 	sub	r3,r3,r2
  2155fc:	e0bfff17 	ldw	r2,-4(fp)
  215600:	1880020e 	bge	r3,r2,21560c <alt_onchip_flash_write+0x6c>
  215604:	00bffc84 	movi	r2,-14
  215608:	00009606 	br	215864 <alt_onchip_flash_write+0x2c4>
  21560c:	e03ff515 	stw	zero,-44(fp)
  215610:	00008706 	br	215830 <alt_onchip_flash_write+0x290>
  215614:	e0fffa17 	ldw	r3,-24(fp)
  215618:	e0bff517 	ldw	r2,-44(fp)
  21561c:	1004913a 	slli	r2,r2,4
  215620:	1885883a 	add	r2,r3,r2
  215624:	10800d04 	addi	r2,r2,52
  215628:	10800017 	ldw	r2,0(r2)
  21562c:	e0fffd17 	ldw	r3,-12(fp)
  215630:	18807c16 	blt	r3,r2,215824 <alt_onchip_flash_write+0x284>
  215634:	e0fffa17 	ldw	r3,-24(fp)
  215638:	e0bff517 	ldw	r2,-44(fp)
  21563c:	1004913a 	slli	r2,r2,4
  215640:	1885883a 	add	r2,r3,r2
  215644:	10800d04 	addi	r2,r2,52
  215648:	10c00017 	ldw	r3,0(r2)
  21564c:	e13ffa17 	ldw	r4,-24(fp)
  215650:	e0bff517 	ldw	r2,-44(fp)
  215654:	1004913a 	slli	r2,r2,4
  215658:	2085883a 	add	r2,r4,r2
  21565c:	10800e04 	addi	r2,r2,56
  215660:	10800017 	ldw	r2,0(r2)
  215664:	1885883a 	add	r2,r3,r2
  215668:	e0fffd17 	ldw	r3,-12(fp)
  21566c:	18806d0e 	bge	r3,r2,215824 <alt_onchip_flash_write+0x284>
  215670:	e0fffa17 	ldw	r3,-24(fp)
  215674:	e0bff517 	ldw	r2,-44(fp)
  215678:	1004913a 	slli	r2,r2,4
  21567c:	1885883a 	add	r2,r3,r2
  215680:	10800d04 	addi	r2,r2,52
  215684:	10800017 	ldw	r2,0(r2)
  215688:	e0bff715 	stw	r2,-36(fp)
  21568c:	e03ff615 	stw	zero,-40(fp)
  215690:	00005c06 	br	215804 <alt_onchip_flash_write+0x264>
  215694:	e0fffd17 	ldw	r3,-12(fp)
  215698:	e0bff717 	ldw	r2,-36(fp)
  21569c:	18804d16 	blt	r3,r2,2157d4 <alt_onchip_flash_write+0x234>
  2156a0:	e0fffa17 	ldw	r3,-24(fp)
  2156a4:	e0bff517 	ldw	r2,-44(fp)
  2156a8:	10800104 	addi	r2,r2,4
  2156ac:	1004913a 	slli	r2,r2,4
  2156b0:	1885883a 	add	r2,r3,r2
  2156b4:	10c00017 	ldw	r3,0(r2)
  2156b8:	e0bff717 	ldw	r2,-36(fp)
  2156bc:	1885883a 	add	r2,r3,r2
  2156c0:	e0fffd17 	ldw	r3,-12(fp)
  2156c4:	1880430e 	bge	r3,r2,2157d4 <alt_onchip_flash_write+0x234>
  2156c8:	e0fffa17 	ldw	r3,-24(fp)
  2156cc:	e0bff517 	ldw	r2,-44(fp)
  2156d0:	10800104 	addi	r2,r2,4
  2156d4:	1004913a 	slli	r2,r2,4
  2156d8:	1885883a 	add	r2,r3,r2
  2156dc:	10c00017 	ldw	r3,0(r2)
  2156e0:	e0bff717 	ldw	r2,-36(fp)
  2156e4:	1887883a 	add	r3,r3,r2
  2156e8:	e0bffd17 	ldw	r2,-12(fp)
  2156ec:	1885c83a 	sub	r2,r3,r2
  2156f0:	e0bffb15 	stw	r2,-20(fp)
  2156f4:	e0fffb17 	ldw	r3,-20(fp)
  2156f8:	e0bfff17 	ldw	r2,-4(fp)
  2156fc:	1880010e 	bge	r3,r2,215704 <alt_onchip_flash_write+0x164>
  215700:	1805883a 	mov	r2,r3
  215704:	e0bffb15 	stw	r2,-20(fp)
  215708:	e0bffa17 	ldw	r2,-24(fp)
  21570c:	10c00a17 	ldw	r3,40(r2)
  215710:	e0bffd17 	ldw	r2,-12(fp)
  215714:	1885883a 	add	r2,r3,r2
  215718:	e0fffb17 	ldw	r3,-20(fp)
  21571c:	180d883a 	mov	r6,r3
  215720:	100b883a 	mov	r5,r2
  215724:	e13ffe17 	ldw	r4,-8(fp)
  215728:	0216b3c0 	call	216b3c <memcmp>
  21572c:	10001326 	beq	r2,zero,21577c <alt_onchip_flash_write+0x1dc>
  215730:	e0bffa17 	ldw	r2,-24(fp)
  215734:	10800817 	ldw	r2,32(r2)
  215738:	e0fffa17 	ldw	r3,-24(fp)
  21573c:	e17ff717 	ldw	r5,-36(fp)
  215740:	1809883a 	mov	r4,r3
  215744:	103ee83a 	callr	r2
  215748:	e0bff415 	stw	r2,-48(fp)
  21574c:	e0bff417 	ldw	r2,-48(fp)
  215750:	10000a1e 	bne	r2,zero,21577c <alt_onchip_flash_write+0x1dc>
  215754:	e0bffa17 	ldw	r2,-24(fp)
  215758:	10800917 	ldw	r2,36(r2)
  21575c:	e13ffa17 	ldw	r4,-24(fp)
  215760:	e0fffb17 	ldw	r3,-20(fp)
  215764:	d8c00015 	stw	r3,0(sp)
  215768:	e1fffe17 	ldw	r7,-8(fp)
  21576c:	e1bffd17 	ldw	r6,-12(fp)
  215770:	e17ff717 	ldw	r5,-36(fp)
  215774:	103ee83a 	callr	r2
  215778:	e0bff415 	stw	r2,-48(fp)
  21577c:	e0ffff17 	ldw	r3,-4(fp)
  215780:	e0bffb17 	ldw	r2,-20(fp)
  215784:	18802e26 	beq	r3,r2,215840 <alt_onchip_flash_write+0x2a0>
  215788:	e0bff417 	ldw	r2,-48(fp)
  21578c:	10002c1e 	bne	r2,zero,215840 <alt_onchip_flash_write+0x2a0>
  215790:	e0ffff17 	ldw	r3,-4(fp)
  215794:	e0bffb17 	ldw	r2,-20(fp)
  215798:	1885c83a 	sub	r2,r3,r2
  21579c:	e0bfff15 	stw	r2,-4(fp)
  2157a0:	e0fffa17 	ldw	r3,-24(fp)
  2157a4:	e0bff517 	ldw	r2,-44(fp)
  2157a8:	10800104 	addi	r2,r2,4
  2157ac:	1004913a 	slli	r2,r2,4
  2157b0:	1885883a 	add	r2,r3,r2
  2157b4:	10c00017 	ldw	r3,0(r2)
  2157b8:	e0bff717 	ldw	r2,-36(fp)
  2157bc:	1885883a 	add	r2,r3,r2
  2157c0:	e0bffd15 	stw	r2,-12(fp)
  2157c4:	e0bffb17 	ldw	r2,-20(fp)
  2157c8:	e0fffe17 	ldw	r3,-8(fp)
  2157cc:	1885883a 	add	r2,r3,r2
  2157d0:	e0bffe15 	stw	r2,-8(fp)
  2157d4:	e0fffa17 	ldw	r3,-24(fp)
  2157d8:	e0bff517 	ldw	r2,-44(fp)
  2157dc:	10800104 	addi	r2,r2,4
  2157e0:	1004913a 	slli	r2,r2,4
  2157e4:	1885883a 	add	r2,r3,r2
  2157e8:	10800017 	ldw	r2,0(r2)
  2157ec:	e0fff717 	ldw	r3,-36(fp)
  2157f0:	1885883a 	add	r2,r3,r2
  2157f4:	e0bff715 	stw	r2,-36(fp)
  2157f8:	e0bff617 	ldw	r2,-40(fp)
  2157fc:	10800044 	addi	r2,r2,1
  215800:	e0bff615 	stw	r2,-40(fp)
  215804:	e0fffa17 	ldw	r3,-24(fp)
  215808:	e0bff517 	ldw	r2,-44(fp)
  21580c:	1004913a 	slli	r2,r2,4
  215810:	1885883a 	add	r2,r3,r2
  215814:	10800f04 	addi	r2,r2,60
  215818:	10800017 	ldw	r2,0(r2)
  21581c:	e0fff617 	ldw	r3,-40(fp)
  215820:	18bf9c16 	blt	r3,r2,215694 <_gp+0xffff6214>
  215824:	e0bff517 	ldw	r2,-44(fp)
  215828:	10800044 	addi	r2,r2,1
  21582c:	e0bff515 	stw	r2,-44(fp)
  215830:	e0bffa17 	ldw	r2,-24(fp)
  215834:	10800c17 	ldw	r2,48(r2)
  215838:	e0fff517 	ldw	r3,-44(fp)
  21583c:	18bf7516 	blt	r3,r2,215614 <_gp+0xffff6194>
  215840:	e0bffa17 	ldw	r2,-24(fp)
  215844:	10c00a17 	ldw	r3,40(r2)
  215848:	e0bff917 	ldw	r2,-28(fp)
  21584c:	1885883a 	add	r2,r3,r2
  215850:	e0fff817 	ldw	r3,-32(fp)
  215854:	180b883a 	mov	r5,r3
  215858:	1009883a 	mov	r4,r2
  21585c:	02161700 	call	216170 <alt_dcache_flush>
  215860:	e0bff417 	ldw	r2,-48(fp)
  215864:	e037883a 	mov	sp,fp
  215868:	dfc00117 	ldw	ra,4(sp)
  21586c:	df000017 	ldw	fp,0(sp)
  215870:	dec00204 	addi	sp,sp,8
  215874:	f800283a 	ret

00215878 <altera_onchip_flash_init>:
  215878:	defff504 	addi	sp,sp,-44
  21587c:	dfc00a15 	stw	ra,40(sp)
  215880:	df000915 	stw	fp,36(sp)
  215884:	dc000815 	stw	r16,32(sp)
  215888:	df000904 	addi	fp,sp,36
  21588c:	e13ffe15 	stw	r4,-8(fp)
  215890:	e03ff815 	stw	zero,-32(fp)
  215894:	e03ff915 	stw	zero,-28(fp)
  215898:	e03ffa15 	stw	zero,-24(fp)
  21589c:	e03ffb15 	stw	zero,-20(fp)
  2158a0:	e03ffc15 	stw	zero,-16(fp)
  2158a4:	e03ff715 	stw	zero,-36(fp)
  2158a8:	e0bffe17 	ldw	r2,-8(fp)
  2158ac:	10800d04 	addi	r2,r2,52
  2158b0:	e0bffd15 	stw	r2,-12(fp)
  2158b4:	e0bffe17 	ldw	r2,-8(fp)
  2158b8:	10802f17 	ldw	r2,188(r2)
  2158bc:	10001926 	beq	r2,zero,215924 <altera_onchip_flash_init+0xac>
  2158c0:	e0bffe17 	ldw	r2,-8(fp)
  2158c4:	10802f17 	ldw	r2,188(r2)
  2158c8:	10800037 	ldwio	r2,0(r2)
  2158cc:	1080080c 	andi	r2,r2,32
  2158d0:	e0bff815 	stw	r2,-32(fp)
  2158d4:	e0bffe17 	ldw	r2,-8(fp)
  2158d8:	10802f17 	ldw	r2,188(r2)
  2158dc:	10800037 	ldwio	r2,0(r2)
  2158e0:	1080100c 	andi	r2,r2,64
  2158e4:	e0bff915 	stw	r2,-28(fp)
  2158e8:	e0bffe17 	ldw	r2,-8(fp)
  2158ec:	10802f17 	ldw	r2,188(r2)
  2158f0:	10800037 	ldwio	r2,0(r2)
  2158f4:	1080200c 	andi	r2,r2,128
  2158f8:	e0bffa15 	stw	r2,-24(fp)
  2158fc:	e0bffe17 	ldw	r2,-8(fp)
  215900:	10802f17 	ldw	r2,188(r2)
  215904:	10800037 	ldwio	r2,0(r2)
  215908:	1080400c 	andi	r2,r2,256
  21590c:	e0bffb15 	stw	r2,-20(fp)
  215910:	e0bffe17 	ldw	r2,-8(fp)
  215914:	10802f17 	ldw	r2,188(r2)
  215918:	10800037 	ldwio	r2,0(r2)
  21591c:	1080800c 	andi	r2,r2,512
  215920:	e0bffc15 	stw	r2,-16(fp)
  215924:	e0bffe17 	ldw	r2,-8(fp)
  215928:	10803017 	ldw	r2,192(r2)
  21592c:	10800058 	cmpnei	r2,r2,1
  215930:	10002f1e 	bne	r2,zero,2159f0 <altera_onchip_flash_init+0x178>
  215934:	e0bff817 	ldw	r2,-32(fp)
  215938:	10800820 	cmpeqi	r2,r2,32
  21593c:	10002c1e 	bne	r2,zero,2159f0 <altera_onchip_flash_init+0x178>
  215940:	e0bff717 	ldw	r2,-36(fp)
  215944:	1004913a 	slli	r2,r2,4
  215948:	e0fffd17 	ldw	r3,-12(fp)
  21594c:	1885883a 	add	r2,r3,r2
  215950:	e0fffe17 	ldw	r3,-8(fp)
  215954:	18c03117 	ldw	r3,196(r3)
  215958:	10c00015 	stw	r3,0(r2)
  21595c:	e0bff717 	ldw	r2,-36(fp)
  215960:	1004913a 	slli	r2,r2,4
  215964:	e0fffd17 	ldw	r3,-12(fp)
  215968:	1885883a 	add	r2,r3,r2
  21596c:	e0fffe17 	ldw	r3,-8(fp)
  215970:	19003217 	ldw	r4,200(r3)
  215974:	e0fffe17 	ldw	r3,-8(fp)
  215978:	18c03117 	ldw	r3,196(r3)
  21597c:	20c7c83a 	sub	r3,r4,r3
  215980:	18c00044 	addi	r3,r3,1
  215984:	10c00115 	stw	r3,4(r2)
  215988:	e0bff717 	ldw	r2,-36(fp)
  21598c:	1004913a 	slli	r2,r2,4
  215990:	e0fffd17 	ldw	r3,-12(fp)
  215994:	18a1883a 	add	r16,r3,r2
  215998:	e0fffe17 	ldw	r3,-8(fp)
  21599c:	e0bff717 	ldw	r2,-36(fp)
  2159a0:	1004913a 	slli	r2,r2,4
  2159a4:	1885883a 	add	r2,r3,r2
  2159a8:	10800e04 	addi	r2,r2,56
  2159ac:	10c00017 	ldw	r3,0(r2)
  2159b0:	e0bffe17 	ldw	r2,-8(fp)
  2159b4:	10803f17 	ldw	r2,252(r2)
  2159b8:	100b883a 	mov	r5,r2
  2159bc:	1809883a 	mov	r4,r3
  2159c0:	02133bc0 	call	2133bc <__divsi3>
  2159c4:	80800215 	stw	r2,8(r16)
  2159c8:	e0bff717 	ldw	r2,-36(fp)
  2159cc:	1004913a 	slli	r2,r2,4
  2159d0:	e0fffd17 	ldw	r3,-12(fp)
  2159d4:	1885883a 	add	r2,r3,r2
  2159d8:	e0fffe17 	ldw	r3,-8(fp)
  2159dc:	18c03f17 	ldw	r3,252(r3)
  2159e0:	10c00315 	stw	r3,12(r2)
  2159e4:	e0bff717 	ldw	r2,-36(fp)
  2159e8:	10800044 	addi	r2,r2,1
  2159ec:	e0bff715 	stw	r2,-36(fp)
  2159f0:	e0bffe17 	ldw	r2,-8(fp)
  2159f4:	10803317 	ldw	r2,204(r2)
  2159f8:	10800058 	cmpnei	r2,r2,1
  2159fc:	10002f1e 	bne	r2,zero,215abc <altera_onchip_flash_init+0x244>
  215a00:	e0bff917 	ldw	r2,-28(fp)
  215a04:	10801020 	cmpeqi	r2,r2,64
  215a08:	10002c1e 	bne	r2,zero,215abc <altera_onchip_flash_init+0x244>
  215a0c:	e0bff717 	ldw	r2,-36(fp)
  215a10:	1004913a 	slli	r2,r2,4
  215a14:	e0fffd17 	ldw	r3,-12(fp)
  215a18:	1885883a 	add	r2,r3,r2
  215a1c:	e0fffe17 	ldw	r3,-8(fp)
  215a20:	18c03417 	ldw	r3,208(r3)
  215a24:	10c00015 	stw	r3,0(r2)
  215a28:	e0bff717 	ldw	r2,-36(fp)
  215a2c:	1004913a 	slli	r2,r2,4
  215a30:	e0fffd17 	ldw	r3,-12(fp)
  215a34:	1885883a 	add	r2,r3,r2
  215a38:	e0fffe17 	ldw	r3,-8(fp)
  215a3c:	19003517 	ldw	r4,212(r3)
  215a40:	e0fffe17 	ldw	r3,-8(fp)
  215a44:	18c03417 	ldw	r3,208(r3)
  215a48:	20c7c83a 	sub	r3,r4,r3
  215a4c:	18c00044 	addi	r3,r3,1
  215a50:	10c00115 	stw	r3,4(r2)
  215a54:	e0bff717 	ldw	r2,-36(fp)
  215a58:	1004913a 	slli	r2,r2,4
  215a5c:	e0fffd17 	ldw	r3,-12(fp)
  215a60:	18a1883a 	add	r16,r3,r2
  215a64:	e0fffe17 	ldw	r3,-8(fp)
  215a68:	e0bff717 	ldw	r2,-36(fp)
  215a6c:	1004913a 	slli	r2,r2,4
  215a70:	1885883a 	add	r2,r3,r2
  215a74:	10800e04 	addi	r2,r2,56
  215a78:	10c00017 	ldw	r3,0(r2)
  215a7c:	e0bffe17 	ldw	r2,-8(fp)
  215a80:	10803f17 	ldw	r2,252(r2)
  215a84:	100b883a 	mov	r5,r2
  215a88:	1809883a 	mov	r4,r3
  215a8c:	02133bc0 	call	2133bc <__divsi3>
  215a90:	80800215 	stw	r2,8(r16)
  215a94:	e0bff717 	ldw	r2,-36(fp)
  215a98:	1004913a 	slli	r2,r2,4
  215a9c:	e0fffd17 	ldw	r3,-12(fp)
  215aa0:	1885883a 	add	r2,r3,r2
  215aa4:	e0fffe17 	ldw	r3,-8(fp)
  215aa8:	18c03f17 	ldw	r3,252(r3)
  215aac:	10c00315 	stw	r3,12(r2)
  215ab0:	e0bff717 	ldw	r2,-36(fp)
  215ab4:	10800044 	addi	r2,r2,1
  215ab8:	e0bff715 	stw	r2,-36(fp)
  215abc:	e0bffe17 	ldw	r2,-8(fp)
  215ac0:	10803617 	ldw	r2,216(r2)
  215ac4:	10800058 	cmpnei	r2,r2,1
  215ac8:	10002f1e 	bne	r2,zero,215b88 <altera_onchip_flash_init+0x310>
  215acc:	e0bffa17 	ldw	r2,-24(fp)
  215ad0:	10802020 	cmpeqi	r2,r2,128
  215ad4:	10002c1e 	bne	r2,zero,215b88 <altera_onchip_flash_init+0x310>
  215ad8:	e0bff717 	ldw	r2,-36(fp)
  215adc:	1004913a 	slli	r2,r2,4
  215ae0:	e0fffd17 	ldw	r3,-12(fp)
  215ae4:	1885883a 	add	r2,r3,r2
  215ae8:	e0fffe17 	ldw	r3,-8(fp)
  215aec:	18c03717 	ldw	r3,220(r3)
  215af0:	10c00015 	stw	r3,0(r2)
  215af4:	e0bff717 	ldw	r2,-36(fp)
  215af8:	1004913a 	slli	r2,r2,4
  215afc:	e0fffd17 	ldw	r3,-12(fp)
  215b00:	1885883a 	add	r2,r3,r2
  215b04:	e0fffe17 	ldw	r3,-8(fp)
  215b08:	19003817 	ldw	r4,224(r3)
  215b0c:	e0fffe17 	ldw	r3,-8(fp)
  215b10:	18c03717 	ldw	r3,220(r3)
  215b14:	20c7c83a 	sub	r3,r4,r3
  215b18:	18c00044 	addi	r3,r3,1
  215b1c:	10c00115 	stw	r3,4(r2)
  215b20:	e0bff717 	ldw	r2,-36(fp)
  215b24:	1004913a 	slli	r2,r2,4
  215b28:	e0fffd17 	ldw	r3,-12(fp)
  215b2c:	18a1883a 	add	r16,r3,r2
  215b30:	e0fffe17 	ldw	r3,-8(fp)
  215b34:	e0bff717 	ldw	r2,-36(fp)
  215b38:	1004913a 	slli	r2,r2,4
  215b3c:	1885883a 	add	r2,r3,r2
  215b40:	10800e04 	addi	r2,r2,56
  215b44:	10c00017 	ldw	r3,0(r2)
  215b48:	e0bffe17 	ldw	r2,-8(fp)
  215b4c:	10803f17 	ldw	r2,252(r2)
  215b50:	100b883a 	mov	r5,r2
  215b54:	1809883a 	mov	r4,r3
  215b58:	02133bc0 	call	2133bc <__divsi3>
  215b5c:	80800215 	stw	r2,8(r16)
  215b60:	e0bff717 	ldw	r2,-36(fp)
  215b64:	1004913a 	slli	r2,r2,4
  215b68:	e0fffd17 	ldw	r3,-12(fp)
  215b6c:	1885883a 	add	r2,r3,r2
  215b70:	e0fffe17 	ldw	r3,-8(fp)
  215b74:	18c03f17 	ldw	r3,252(r3)
  215b78:	10c00315 	stw	r3,12(r2)
  215b7c:	e0bff717 	ldw	r2,-36(fp)
  215b80:	10800044 	addi	r2,r2,1
  215b84:	e0bff715 	stw	r2,-36(fp)
  215b88:	e0bffe17 	ldw	r2,-8(fp)
  215b8c:	10803917 	ldw	r2,228(r2)
  215b90:	10800058 	cmpnei	r2,r2,1
  215b94:	10002f1e 	bne	r2,zero,215c54 <altera_onchip_flash_init+0x3dc>
  215b98:	e0bffb17 	ldw	r2,-20(fp)
  215b9c:	10804020 	cmpeqi	r2,r2,256
  215ba0:	10002c1e 	bne	r2,zero,215c54 <altera_onchip_flash_init+0x3dc>
  215ba4:	e0bff717 	ldw	r2,-36(fp)
  215ba8:	1004913a 	slli	r2,r2,4
  215bac:	e0fffd17 	ldw	r3,-12(fp)
  215bb0:	1885883a 	add	r2,r3,r2
  215bb4:	e0fffe17 	ldw	r3,-8(fp)
  215bb8:	18c03a17 	ldw	r3,232(r3)
  215bbc:	10c00015 	stw	r3,0(r2)
  215bc0:	e0bff717 	ldw	r2,-36(fp)
  215bc4:	1004913a 	slli	r2,r2,4
  215bc8:	e0fffd17 	ldw	r3,-12(fp)
  215bcc:	1885883a 	add	r2,r3,r2
  215bd0:	e0fffe17 	ldw	r3,-8(fp)
  215bd4:	19003b17 	ldw	r4,236(r3)
  215bd8:	e0fffe17 	ldw	r3,-8(fp)
  215bdc:	18c03a17 	ldw	r3,232(r3)
  215be0:	20c7c83a 	sub	r3,r4,r3
  215be4:	18c00044 	addi	r3,r3,1
  215be8:	10c00115 	stw	r3,4(r2)
  215bec:	e0bff717 	ldw	r2,-36(fp)
  215bf0:	1004913a 	slli	r2,r2,4
  215bf4:	e0fffd17 	ldw	r3,-12(fp)
  215bf8:	18a1883a 	add	r16,r3,r2
  215bfc:	e0fffe17 	ldw	r3,-8(fp)
  215c00:	e0bff717 	ldw	r2,-36(fp)
  215c04:	1004913a 	slli	r2,r2,4
  215c08:	1885883a 	add	r2,r3,r2
  215c0c:	10800e04 	addi	r2,r2,56
  215c10:	10c00017 	ldw	r3,0(r2)
  215c14:	e0bffe17 	ldw	r2,-8(fp)
  215c18:	10803f17 	ldw	r2,252(r2)
  215c1c:	100b883a 	mov	r5,r2
  215c20:	1809883a 	mov	r4,r3
  215c24:	02133bc0 	call	2133bc <__divsi3>
  215c28:	80800215 	stw	r2,8(r16)
  215c2c:	e0bff717 	ldw	r2,-36(fp)
  215c30:	1004913a 	slli	r2,r2,4
  215c34:	e0fffd17 	ldw	r3,-12(fp)
  215c38:	1885883a 	add	r2,r3,r2
  215c3c:	e0fffe17 	ldw	r3,-8(fp)
  215c40:	18c03f17 	ldw	r3,252(r3)
  215c44:	10c00315 	stw	r3,12(r2)
  215c48:	e0bff717 	ldw	r2,-36(fp)
  215c4c:	10800044 	addi	r2,r2,1
  215c50:	e0bff715 	stw	r2,-36(fp)
  215c54:	e0bffe17 	ldw	r2,-8(fp)
  215c58:	10803c17 	ldw	r2,240(r2)
  215c5c:	10800058 	cmpnei	r2,r2,1
  215c60:	10002f1e 	bne	r2,zero,215d20 <altera_onchip_flash_init+0x4a8>
  215c64:	e0bffc17 	ldw	r2,-16(fp)
  215c68:	10808020 	cmpeqi	r2,r2,512
  215c6c:	10002c1e 	bne	r2,zero,215d20 <altera_onchip_flash_init+0x4a8>
  215c70:	e0bff717 	ldw	r2,-36(fp)
  215c74:	1004913a 	slli	r2,r2,4
  215c78:	e0fffd17 	ldw	r3,-12(fp)
  215c7c:	1885883a 	add	r2,r3,r2
  215c80:	e0fffe17 	ldw	r3,-8(fp)
  215c84:	18c03d17 	ldw	r3,244(r3)
  215c88:	10c00015 	stw	r3,0(r2)
  215c8c:	e0bff717 	ldw	r2,-36(fp)
  215c90:	1004913a 	slli	r2,r2,4
  215c94:	e0fffd17 	ldw	r3,-12(fp)
  215c98:	1885883a 	add	r2,r3,r2
  215c9c:	e0fffe17 	ldw	r3,-8(fp)
  215ca0:	19003e17 	ldw	r4,248(r3)
  215ca4:	e0fffe17 	ldw	r3,-8(fp)
  215ca8:	18c03d17 	ldw	r3,244(r3)
  215cac:	20c7c83a 	sub	r3,r4,r3
  215cb0:	18c00044 	addi	r3,r3,1
  215cb4:	10c00115 	stw	r3,4(r2)
  215cb8:	e0bff717 	ldw	r2,-36(fp)
  215cbc:	1004913a 	slli	r2,r2,4
  215cc0:	e0fffd17 	ldw	r3,-12(fp)
  215cc4:	18a1883a 	add	r16,r3,r2
  215cc8:	e0fffe17 	ldw	r3,-8(fp)
  215ccc:	e0bff717 	ldw	r2,-36(fp)
  215cd0:	1004913a 	slli	r2,r2,4
  215cd4:	1885883a 	add	r2,r3,r2
  215cd8:	10800e04 	addi	r2,r2,56
  215cdc:	10c00017 	ldw	r3,0(r2)
  215ce0:	e0bffe17 	ldw	r2,-8(fp)
  215ce4:	10803f17 	ldw	r2,252(r2)
  215ce8:	100b883a 	mov	r5,r2
  215cec:	1809883a 	mov	r4,r3
  215cf0:	02133bc0 	call	2133bc <__divsi3>
  215cf4:	80800215 	stw	r2,8(r16)
  215cf8:	e0bff717 	ldw	r2,-36(fp)
  215cfc:	1004913a 	slli	r2,r2,4
  215d00:	e0fffd17 	ldw	r3,-12(fp)
  215d04:	1885883a 	add	r2,r3,r2
  215d08:	e0fffe17 	ldw	r3,-8(fp)
  215d0c:	18c03f17 	ldw	r3,252(r3)
  215d10:	10c00315 	stw	r3,12(r2)
  215d14:	e0bff717 	ldw	r2,-36(fp)
  215d18:	10800044 	addi	r2,r2,1
  215d1c:	e0bff715 	stw	r2,-36(fp)
  215d20:	e0bffe17 	ldw	r2,-8(fp)
  215d24:	e0fff717 	ldw	r3,-36(fp)
  215d28:	10c00c15 	stw	r3,48(r2)
  215d2c:	e0bffe17 	ldw	r2,-8(fp)
  215d30:	1009883a 	mov	r4,r2
  215d34:	0214fc40 	call	214fc4 <alt_flash_device_register>
  215d38:	0001883a 	nop
  215d3c:	e6ffff04 	addi	sp,fp,-4
  215d40:	dfc00217 	ldw	ra,8(sp)
  215d44:	df000117 	ldw	fp,4(sp)
  215d48:	dc000017 	ldw	r16,0(sp)
  215d4c:	dec00304 	addi	sp,sp,12
  215d50:	f800283a 	ret

00215d54 <alt_onchip_flash_poll_for_status_to_go_idle>:
  215d54:	defffa04 	addi	sp,sp,-24
  215d58:	dfc00515 	stw	ra,20(sp)
  215d5c:	df000415 	stw	fp,16(sp)
  215d60:	df000404 	addi	fp,sp,16
  215d64:	e13fff15 	stw	r4,-4(fp)
  215d68:	e03ffc15 	stw	zero,-16(fp)
  215d6c:	008002f4 	movhi	r2,11
  215d70:	10ab9804 	addi	r2,r2,-20896
  215d74:	e0bffe15 	stw	r2,-8(fp)
  215d78:	008002f4 	movhi	r2,11
  215d7c:	10ab9804 	addi	r2,r2,-20896
  215d80:	e0bffd15 	stw	r2,-12(fp)
  215d84:	00000c06 	br	215db8 <alt_onchip_flash_poll_for_status_to_go_idle+0x64>
  215d88:	01000044 	movi	r4,1
  215d8c:	0215f040 	call	215f04 <alt_busy_sleep>
  215d90:	e0bffe17 	ldw	r2,-8(fp)
  215d94:	10000826 	beq	r2,zero,215db8 <alt_onchip_flash_poll_for_status_to_go_idle+0x64>
  215d98:	e0bffd17 	ldw	r2,-12(fp)
  215d9c:	10bfffc4 	addi	r2,r2,-1
  215da0:	e0bffd15 	stw	r2,-12(fp)
  215da4:	e0bffd17 	ldw	r2,-12(fp)
  215da8:	1000031e 	bne	r2,zero,215db8 <alt_onchip_flash_poll_for_status_to_go_idle+0x64>
  215dac:	00bfe304 	movi	r2,-116
  215db0:	e0bffc15 	stw	r2,-16(fp)
  215db4:	00000506 	br	215dcc <alt_onchip_flash_poll_for_status_to_go_idle+0x78>
  215db8:	e0bfff17 	ldw	r2,-4(fp)
  215dbc:	10802f17 	ldw	r2,188(r2)
  215dc0:	10800037 	ldwio	r2,0(r2)
  215dc4:	108000cc 	andi	r2,r2,3
  215dc8:	103fef1e 	bne	r2,zero,215d88 <_gp+0xffff6908>
  215dcc:	e0bffc17 	ldw	r2,-16(fp)
  215dd0:	e037883a 	mov	sp,fp
  215dd4:	dfc00117 	ldw	ra,4(sp)
  215dd8:	df000017 	ldw	fp,0(sp)
  215ddc:	dec00204 	addi	sp,sp,8
  215de0:	f800283a 	ret

00215de4 <alt_onchip_flash_poll_for_status_erase_passed>:
  215de4:	defffa04 	addi	sp,sp,-24
  215de8:	dfc00515 	stw	ra,20(sp)
  215dec:	df000415 	stw	fp,16(sp)
  215df0:	df000404 	addi	fp,sp,16
  215df4:	e13fff15 	stw	r4,-4(fp)
  215df8:	e03ffc15 	stw	zero,-16(fp)
  215dfc:	008002f4 	movhi	r2,11
  215e00:	10ab9804 	addi	r2,r2,-20896
  215e04:	e0bffe15 	stw	r2,-8(fp)
  215e08:	008002f4 	movhi	r2,11
  215e0c:	10ab9804 	addi	r2,r2,-20896
  215e10:	e0bffd15 	stw	r2,-12(fp)
  215e14:	00000c06 	br	215e48 <alt_onchip_flash_poll_for_status_erase_passed+0x64>
  215e18:	01000044 	movi	r4,1
  215e1c:	0215f040 	call	215f04 <alt_busy_sleep>
  215e20:	e0bffe17 	ldw	r2,-8(fp)
  215e24:	10000826 	beq	r2,zero,215e48 <alt_onchip_flash_poll_for_status_erase_passed+0x64>
  215e28:	e0bffd17 	ldw	r2,-12(fp)
  215e2c:	10bfffc4 	addi	r2,r2,-1
  215e30:	e0bffd15 	stw	r2,-12(fp)
  215e34:	e0bffd17 	ldw	r2,-12(fp)
  215e38:	1000031e 	bne	r2,zero,215e48 <alt_onchip_flash_poll_for_status_erase_passed+0x64>
  215e3c:	00bfe304 	movi	r2,-116
  215e40:	e0bffc15 	stw	r2,-16(fp)
  215e44:	00000506 	br	215e5c <alt_onchip_flash_poll_for_status_erase_passed+0x78>
  215e48:	e0bfff17 	ldw	r2,-4(fp)
  215e4c:	10802f17 	ldw	r2,188(r2)
  215e50:	10800037 	ldwio	r2,0(r2)
  215e54:	1080040c 	andi	r2,r2,16
  215e58:	103fef26 	beq	r2,zero,215e18 <_gp+0xffff6998>
  215e5c:	e0bffc17 	ldw	r2,-16(fp)
  215e60:	e037883a 	mov	sp,fp
  215e64:	dfc00117 	ldw	ra,4(sp)
  215e68:	df000017 	ldw	fp,0(sp)
  215e6c:	dec00204 	addi	sp,sp,8
  215e70:	f800283a 	ret

00215e74 <alt_onchip_flash_poll_for_status_write_passed>:
  215e74:	defffa04 	addi	sp,sp,-24
  215e78:	dfc00515 	stw	ra,20(sp)
  215e7c:	df000415 	stw	fp,16(sp)
  215e80:	df000404 	addi	fp,sp,16
  215e84:	e13fff15 	stw	r4,-4(fp)
  215e88:	e03ffc15 	stw	zero,-16(fp)
  215e8c:	008002f4 	movhi	r2,11
  215e90:	10ab9804 	addi	r2,r2,-20896
  215e94:	e0bffe15 	stw	r2,-8(fp)
  215e98:	008002f4 	movhi	r2,11
  215e9c:	10ab9804 	addi	r2,r2,-20896
  215ea0:	e0bffd15 	stw	r2,-12(fp)
  215ea4:	00000c06 	br	215ed8 <alt_onchip_flash_poll_for_status_write_passed+0x64>
  215ea8:	01000044 	movi	r4,1
  215eac:	0215f040 	call	215f04 <alt_busy_sleep>
  215eb0:	e0bffe17 	ldw	r2,-8(fp)
  215eb4:	10000826 	beq	r2,zero,215ed8 <alt_onchip_flash_poll_for_status_write_passed+0x64>
  215eb8:	e0bffd17 	ldw	r2,-12(fp)
  215ebc:	10bfffc4 	addi	r2,r2,-1
  215ec0:	e0bffd15 	stw	r2,-12(fp)
  215ec4:	e0bffd17 	ldw	r2,-12(fp)
  215ec8:	1000031e 	bne	r2,zero,215ed8 <alt_onchip_flash_poll_for_status_write_passed+0x64>
  215ecc:	00bfe304 	movi	r2,-116
  215ed0:	e0bffc15 	stw	r2,-16(fp)
  215ed4:	00000506 	br	215eec <alt_onchip_flash_poll_for_status_write_passed+0x78>
  215ed8:	e0bfff17 	ldw	r2,-4(fp)
  215edc:	10802f17 	ldw	r2,188(r2)
  215ee0:	10800037 	ldwio	r2,0(r2)
  215ee4:	1080020c 	andi	r2,r2,8
  215ee8:	103fef26 	beq	r2,zero,215ea8 <_gp+0xffff6a28>
  215eec:	e0bffc17 	ldw	r2,-16(fp)
  215ef0:	e037883a 	mov	sp,fp
  215ef4:	dfc00117 	ldw	ra,4(sp)
  215ef8:	df000017 	ldw	fp,0(sp)
  215efc:	dec00204 	addi	sp,sp,8
  215f00:	f800283a 	ret

00215f04 <alt_busy_sleep>:
  215f04:	defffa04 	addi	sp,sp,-24
  215f08:	dfc00515 	stw	ra,20(sp)
  215f0c:	df000415 	stw	fp,16(sp)
  215f10:	df000404 	addi	fp,sp,16
  215f14:	e13fff15 	stw	r4,-4(fp)
  215f18:	00800244 	movi	r2,9
  215f1c:	e0bffd15 	stw	r2,-12(fp)
  215f20:	014003f4 	movhi	r5,15
  215f24:	29509004 	addi	r5,r5,16960
  215f28:	e13ffd17 	ldw	r4,-12(fp)
  215f2c:	02135700 	call	213570 <__mulsi3>
  215f30:	100b883a 	mov	r5,r2
  215f34:	0100bef4 	movhi	r4,763
  215f38:	213c2004 	addi	r4,r4,-3968
  215f3c:	02134b40 	call	2134b4 <__udivsi3>
  215f40:	100b883a 	mov	r5,r2
  215f44:	01200034 	movhi	r4,32768
  215f48:	213fffc4 	addi	r4,r4,-1
  215f4c:	02134b40 	call	2134b4 <__udivsi3>
  215f50:	100b883a 	mov	r5,r2
  215f54:	e13fff17 	ldw	r4,-4(fp)
  215f58:	02134b40 	call	2134b4 <__udivsi3>
  215f5c:	e0bffe15 	stw	r2,-8(fp)
  215f60:	e0bffe17 	ldw	r2,-8(fp)
  215f64:	10002a26 	beq	r2,zero,216010 <alt_busy_sleep+0x10c>
  215f68:	e03ffc15 	stw	zero,-16(fp)
  215f6c:	00001706 	br	215fcc <alt_busy_sleep+0xc8>
  215f70:	00a00034 	movhi	r2,32768
  215f74:	10bfffc4 	addi	r2,r2,-1
  215f78:	10bfffc4 	addi	r2,r2,-1
  215f7c:	103ffe1e 	bne	r2,zero,215f78 <_gp+0xffff6af8>
  215f80:	014003f4 	movhi	r5,15
  215f84:	29509004 	addi	r5,r5,16960
  215f88:	e13ffd17 	ldw	r4,-12(fp)
  215f8c:	02135700 	call	213570 <__mulsi3>
  215f90:	100b883a 	mov	r5,r2
  215f94:	0100bef4 	movhi	r4,763
  215f98:	213c2004 	addi	r4,r4,-3968
  215f9c:	02134b40 	call	2134b4 <__udivsi3>
  215fa0:	100b883a 	mov	r5,r2
  215fa4:	01200034 	movhi	r4,32768
  215fa8:	213fffc4 	addi	r4,r4,-1
  215fac:	02134b40 	call	2134b4 <__udivsi3>
  215fb0:	1007883a 	mov	r3,r2
  215fb4:	e0bfff17 	ldw	r2,-4(fp)
  215fb8:	10c5c83a 	sub	r2,r2,r3
  215fbc:	e0bfff15 	stw	r2,-4(fp)
  215fc0:	e0bffc17 	ldw	r2,-16(fp)
  215fc4:	10800044 	addi	r2,r2,1
  215fc8:	e0bffc15 	stw	r2,-16(fp)
  215fcc:	e0fffc17 	ldw	r3,-16(fp)
  215fd0:	e0bffe17 	ldw	r2,-8(fp)
  215fd4:	18bfe616 	blt	r3,r2,215f70 <_gp+0xffff6af0>
  215fd8:	014003f4 	movhi	r5,15
  215fdc:	29509004 	addi	r5,r5,16960
  215fe0:	e13ffd17 	ldw	r4,-12(fp)
  215fe4:	02135700 	call	213570 <__mulsi3>
  215fe8:	100b883a 	mov	r5,r2
  215fec:	0100bef4 	movhi	r4,763
  215ff0:	213c2004 	addi	r4,r4,-3968
  215ff4:	02134b40 	call	2134b4 <__udivsi3>
  215ff8:	e17fff17 	ldw	r5,-4(fp)
  215ffc:	1009883a 	mov	r4,r2
  216000:	02135700 	call	213570 <__mulsi3>
  216004:	10bfffc4 	addi	r2,r2,-1
  216008:	103ffe1e 	bne	r2,zero,216004 <_gp+0xffff6b84>
  21600c:	00000d06 	br	216044 <alt_busy_sleep+0x140>
  216010:	014003f4 	movhi	r5,15
  216014:	29509004 	addi	r5,r5,16960
  216018:	e13ffd17 	ldw	r4,-12(fp)
  21601c:	02135700 	call	213570 <__mulsi3>
  216020:	100b883a 	mov	r5,r2
  216024:	0100bef4 	movhi	r4,763
  216028:	213c2004 	addi	r4,r4,-3968
  21602c:	02134b40 	call	2134b4 <__udivsi3>
  216030:	e17fff17 	ldw	r5,-4(fp)
  216034:	1009883a 	mov	r4,r2
  216038:	02135700 	call	213570 <__mulsi3>
  21603c:	10bfffc4 	addi	r2,r2,-1
  216040:	00bffe16 	blt	zero,r2,21603c <_gp+0xffff6bbc>
  216044:	0005883a 	mov	r2,zero
  216048:	e037883a 	mov	sp,fp
  21604c:	dfc00117 	ldw	ra,4(sp)
  216050:	df000017 	ldw	fp,0(sp)
  216054:	dec00204 	addi	sp,sp,8
  216058:	f800283a 	ret

0021605c <alt_get_errno>:
  21605c:	defffe04 	addi	sp,sp,-8
  216060:	dfc00115 	stw	ra,4(sp)
  216064:	df000015 	stw	fp,0(sp)
  216068:	d839883a 	mov	fp,sp
  21606c:	d0a01017 	ldw	r2,-32704(gp)
  216070:	10000326 	beq	r2,zero,216080 <alt_get_errno+0x24>
  216074:	d0a01017 	ldw	r2,-32704(gp)
  216078:	103ee83a 	callr	r2
  21607c:	00000106 	br	216084 <alt_get_errno+0x28>
  216080:	d0a02704 	addi	r2,gp,-32612
  216084:	e037883a 	mov	sp,fp
  216088:	dfc00117 	ldw	ra,4(sp)
  21608c:	df000017 	ldw	fp,0(sp)
  216090:	dec00204 	addi	sp,sp,8
  216094:	f800283a 	ret

00216098 <close>:
  216098:	defffb04 	addi	sp,sp,-20
  21609c:	dfc00415 	stw	ra,16(sp)
  2160a0:	df000315 	stw	fp,12(sp)
  2160a4:	df000304 	addi	fp,sp,12
  2160a8:	e13fff15 	stw	r4,-4(fp)
  2160ac:	e0bfff17 	ldw	r2,-4(fp)
  2160b0:	10000816 	blt	r2,zero,2160d4 <close+0x3c>
  2160b4:	01400304 	movi	r5,12
  2160b8:	e13fff17 	ldw	r4,-4(fp)
  2160bc:	02135700 	call	213570 <__mulsi3>
  2160c0:	1007883a 	mov	r3,r2
  2160c4:	00800874 	movhi	r2,33
  2160c8:	109cc004 	addi	r2,r2,29440
  2160cc:	1885883a 	add	r2,r3,r2
  2160d0:	00000106 	br	2160d8 <close+0x40>
  2160d4:	0005883a 	mov	r2,zero
  2160d8:	e0bffd15 	stw	r2,-12(fp)
  2160dc:	e0bffd17 	ldw	r2,-12(fp)
  2160e0:	10001926 	beq	r2,zero,216148 <close+0xb0>
  2160e4:	e0bffd17 	ldw	r2,-12(fp)
  2160e8:	10800017 	ldw	r2,0(r2)
  2160ec:	10800417 	ldw	r2,16(r2)
  2160f0:	10000626 	beq	r2,zero,21610c <close+0x74>
  2160f4:	e0bffd17 	ldw	r2,-12(fp)
  2160f8:	10800017 	ldw	r2,0(r2)
  2160fc:	10800417 	ldw	r2,16(r2)
  216100:	e13ffd17 	ldw	r4,-12(fp)
  216104:	103ee83a 	callr	r2
  216108:	00000106 	br	216110 <close+0x78>
  21610c:	0005883a 	mov	r2,zero
  216110:	e0bffe15 	stw	r2,-8(fp)
  216114:	e13fff17 	ldw	r4,-4(fp)
  216118:	02168040 	call	216804 <alt_release_fd>
  21611c:	e0bffe17 	ldw	r2,-8(fp)
  216120:	1000070e 	bge	r2,zero,216140 <close+0xa8>
  216124:	021605c0 	call	21605c <alt_get_errno>
  216128:	1007883a 	mov	r3,r2
  21612c:	e0bffe17 	ldw	r2,-8(fp)
  216130:	0085c83a 	sub	r2,zero,r2
  216134:	18800015 	stw	r2,0(r3)
  216138:	00bfffc4 	movi	r2,-1
  21613c:	00000706 	br	21615c <close+0xc4>
  216140:	0005883a 	mov	r2,zero
  216144:	00000506 	br	21615c <close+0xc4>
  216148:	021605c0 	call	21605c <alt_get_errno>
  21614c:	1007883a 	mov	r3,r2
  216150:	00801444 	movi	r2,81
  216154:	18800015 	stw	r2,0(r3)
  216158:	00bfffc4 	movi	r2,-1
  21615c:	e037883a 	mov	sp,fp
  216160:	dfc00117 	ldw	ra,4(sp)
  216164:	df000017 	ldw	fp,0(sp)
  216168:	dec00204 	addi	sp,sp,8
  21616c:	f800283a 	ret

00216170 <alt_dcache_flush>:
  216170:	defffd04 	addi	sp,sp,-12
  216174:	df000215 	stw	fp,8(sp)
  216178:	df000204 	addi	fp,sp,8
  21617c:	e13ffe15 	stw	r4,-8(fp)
  216180:	e17fff15 	stw	r5,-4(fp)
  216184:	0001883a 	nop
  216188:	e037883a 	mov	sp,fp
  21618c:	df000017 	ldw	fp,0(sp)
  216190:	dec00104 	addi	sp,sp,4
  216194:	f800283a 	ret

00216198 <alt_dev_null_write>:
  216198:	defffc04 	addi	sp,sp,-16
  21619c:	df000315 	stw	fp,12(sp)
  2161a0:	df000304 	addi	fp,sp,12
  2161a4:	e13ffd15 	stw	r4,-12(fp)
  2161a8:	e17ffe15 	stw	r5,-8(fp)
  2161ac:	e1bfff15 	stw	r6,-4(fp)
  2161b0:	e0bfff17 	ldw	r2,-4(fp)
  2161b4:	e037883a 	mov	sp,fp
  2161b8:	df000017 	ldw	fp,0(sp)
  2161bc:	dec00104 	addi	sp,sp,4
  2161c0:	f800283a 	ret

002161c4 <alt_get_errno>:
  2161c4:	defffe04 	addi	sp,sp,-8
  2161c8:	dfc00115 	stw	ra,4(sp)
  2161cc:	df000015 	stw	fp,0(sp)
  2161d0:	d839883a 	mov	fp,sp
  2161d4:	d0a01017 	ldw	r2,-32704(gp)
  2161d8:	10000326 	beq	r2,zero,2161e8 <alt_get_errno+0x24>
  2161dc:	d0a01017 	ldw	r2,-32704(gp)
  2161e0:	103ee83a 	callr	r2
  2161e4:	00000106 	br	2161ec <alt_get_errno+0x28>
  2161e8:	d0a02704 	addi	r2,gp,-32612
  2161ec:	e037883a 	mov	sp,fp
  2161f0:	dfc00117 	ldw	ra,4(sp)
  2161f4:	df000017 	ldw	fp,0(sp)
  2161f8:	dec00204 	addi	sp,sp,8
  2161fc:	f800283a 	ret

00216200 <alt_dev_llist_insert>:
  216200:	defffa04 	addi	sp,sp,-24
  216204:	dfc00515 	stw	ra,20(sp)
  216208:	df000415 	stw	fp,16(sp)
  21620c:	df000404 	addi	fp,sp,16
  216210:	e13ffe15 	stw	r4,-8(fp)
  216214:	e17fff15 	stw	r5,-4(fp)
  216218:	e0bffe17 	ldw	r2,-8(fp)
  21621c:	10000326 	beq	r2,zero,21622c <alt_dev_llist_insert+0x2c>
  216220:	e0bffe17 	ldw	r2,-8(fp)
  216224:	10800217 	ldw	r2,8(r2)
  216228:	1000061e 	bne	r2,zero,216244 <alt_dev_llist_insert+0x44>
  21622c:	02161c40 	call	2161c4 <alt_get_errno>
  216230:	1007883a 	mov	r3,r2
  216234:	00800584 	movi	r2,22
  216238:	18800015 	stw	r2,0(r3)
  21623c:	00bffa84 	movi	r2,-22
  216240:	00001306 	br	216290 <alt_dev_llist_insert+0x90>
  216244:	e0bffe17 	ldw	r2,-8(fp)
  216248:	e0ffff17 	ldw	r3,-4(fp)
  21624c:	e0fffc15 	stw	r3,-16(fp)
  216250:	e0bffd15 	stw	r2,-12(fp)
  216254:	e0bffd17 	ldw	r2,-12(fp)
  216258:	e0fffc17 	ldw	r3,-16(fp)
  21625c:	10c00115 	stw	r3,4(r2)
  216260:	e0bffc17 	ldw	r2,-16(fp)
  216264:	10c00017 	ldw	r3,0(r2)
  216268:	e0bffd17 	ldw	r2,-12(fp)
  21626c:	10c00015 	stw	r3,0(r2)
  216270:	e0bffc17 	ldw	r2,-16(fp)
  216274:	10800017 	ldw	r2,0(r2)
  216278:	e0fffd17 	ldw	r3,-12(fp)
  21627c:	10c00115 	stw	r3,4(r2)
  216280:	e0bffc17 	ldw	r2,-16(fp)
  216284:	e0fffd17 	ldw	r3,-12(fp)
  216288:	10c00015 	stw	r3,0(r2)
  21628c:	0005883a 	mov	r2,zero
  216290:	e037883a 	mov	sp,fp
  216294:	dfc00117 	ldw	ra,4(sp)
  216298:	df000017 	ldw	fp,0(sp)
  21629c:	dec00204 	addi	sp,sp,8
  2162a0:	f800283a 	ret

002162a4 <_do_ctors>:
  2162a4:	defffd04 	addi	sp,sp,-12
  2162a8:	dfc00215 	stw	ra,8(sp)
  2162ac:	df000115 	stw	fp,4(sp)
